(lp0
F0.99
aF0.99
aF1.0
aF1.0
aF1.0
aF1.0
aF1.0
aF0.99
aF0.99
aF1.0
aF1.0
aF1.0
aF1.0
aF1.0
aF0.99
aF0.99
aF1.0
aF1.0
aF1.0
aF1.0
aF1.0
aF0.99
aF0.99
aF1.0
aF1.0
aF1.0
aF1.0
aF1.0
aF0.99
aF0.99
aF1.0
aF1.0
aF1.0
aF1.0
aF1.0
aF0.98
aF0.98
aF1.0
aF1.0
aF1.0
aF1.0
aF1.0
aF0.98
aF0.98
aF1.0
aF1.0
aF1.0
aF1.0
aF1.0
aF0.98
aF0.98
aF1.0
aF1.0
aF1.0
aF1.0
aF1.0
aF0.98
aF0.98
aF1.0
aF1.0
aF1.0
aF1.0
aF1.0
aF0.98
aF0.98
aF1.0
aF1.0
aF1.0
aF1.0
aF1.0
aF0.98
aF0.98
aF1.0
aF1.0
aF1.0
aF1.0
aF1.0
aF0.97
aF0.97
aF1.0
aF1.0
aF1.0
aF1.0
aF1.0
aF0.97
aF0.97
aF1.0
aF1.0
aF1.0
aF1.0
aF1.0
aF0.97
aF0.97
aF1.0
aF1.0
aF1.0
aF1.0
aF1.0
aF0.97
aF0.97
aF1.0
aF1.0
aF1.0
aF1.0
aF1.0
aF0.97
aF0.97
aF0.99
aF1.0
aF1.0
aF1.0
aF1.0
aF0.97
aF0.97
aF0.99
aF1.0
aF1.0
aF1.0
aF1.0
aF0.95
aF0.95
aF0.99
aF1.0
aF1.0
aF1.0
aF1.0
aF0.94
aF0.94
aF0.99
aF1.0
aF1.0
aF1.0
aF1.0
aF0.94
aF0.94
aF0.99
aF1.0
aF1.0
aF1.0
aF1.0
aF0.93
aF0.93
aF0.99
aF1.0
aF1.0
aF1.0
aF1.0
aF0.93
aF0.93
aF0.99
aF1.0
aF1.0
aF1.0
aF1.0
aF0.93
aF0.93
aF0.99
aF1.0
aF1.0
aF1.0
aF1.0
aF0.93
aF0.93
aF0.99
aF1.0
aF1.0
aF1.0
aF1.0
aF0.93
aF0.93
aF0.99
aF1.0
aF1.0
aF1.0
aF1.0
aF0.92
aF0.92
aF0.98
aF1.0
aF1.0
aF1.0
aF1.0
aF0.9
aF0.9
aF0.98
aF1.0
aF1.0
aF1.0
aF1.0
aF0.88
aF0.88
aF0.98
aF1.0
aF1.0
aF1.0
aF1.0
aF0.88
aF0.88
aF0.98
aF1.0
aF1.0
aF1.0
aF1.0
aF0.88
aF0.88
aF0.98
aF1.0
aF1.0
aF1.0
aF1.0
aF0.85
aF0.85
aF0.98
aF1.0
aF1.0
aF1.0
aF1.0
aF0.85
aF0.85
aF0.98
aF0.99
aF1.0
aF1.0
aF1.0
aF0.85
aF0.85
aF0.98
aF0.98
aF1.0
aF1.0
aF1.0
aF0.83
aF0.83
aF0.98
aF0.98
aF1.0
aF1.0
aF1.0
aF0.81
aF0.81
aF0.97
aF0.98
aF1.0
aF1.0
aF1.0
aF0.8
aF0.8
aF0.95
aF0.98
aF1.0
aF1.0
aF1.0
aF0.79
aF0.79
aF0.95
aF0.98
aF0.99
aF1.0
aF1.0
aF0.78
aF0.78
aF0.95
aF0.98
aF0.99
aF1.0
aF1.0
aF0.76
aF0.76
aF0.94
aF0.98
aF0.99
aF1.0
aF1.0
aF0.74
aF0.74
aF0.94
aF0.98
aF0.99
aF1.0
aF1.0
aF0.73
aF0.73
aF0.92
aF0.98
aF0.99
aF1.0
aF1.0
aF0.72
aF0.72
aF0.92
aF0.98
aF0.99
aF1.0
aF1.0
aF0.7
aF0.7
aF0.91
aF0.97
aF0.98
aF0.99
aF1.0
aF0.68
aF0.68
aF0.91
aF0.97
aF0.98
aF0.99
aF1.0
aF0.66
aF0.66
aF0.91
aF0.95
aF0.98
aF0.99
aF1.0
aF0.66
aF0.66
aF0.9
aF0.95
aF0.98
aF0.99
aF1.0
aF0.66
aF0.66
aF0.88
aF0.95
aF0.98
aF0.99
aF1.0
aF0.66
aF0.66
aF0.88
aF0.95
aF0.98
aF0.99
aF1.0
aF0.64
aF0.64
aF0.87
aF0.94
aF0.98
aF0.99
aF0.983333
aF0.62
aF0.62
aF0.86
aF0.93
aF0.98
aF0.99
aF0.983333
aF0.61
aF0.61
aF0.86
aF0.93
aF0.97
aF0.99
aF0.983333
aF0.58
aF0.58
aF0.85
aF0.91
aF0.97
aF0.98
aF0.983333
aF0.58
aF0.58
aF0.84
aF0.89
aF0.97
aF0.96
aF0.966667
aF0.57
aF0.57
aF0.81
aF0.89
aF0.97
aF0.96
aF0.95
aF0.56
aF0.56
aF0.75
aF0.88
aF0.96
aF0.95
aF0.95
aF0.54
aF0.54
aF0.74
aF0.88
aF0.95
aF0.95
aF0.95
aF0.52
aF0.52
aF0.71
aF0.86
aF0.93
aF0.93
aF0.933333
aF0.49
aF0.49
aF0.68
aF0.84
aF0.93
aF0.91
aF0.916667
aF0.45
aF0.45
aF0.66
aF0.82
aF0.92
aF0.88
aF0.883333
aF0.45
aF0.45
aF0.66
aF0.8
aF0.89
aF0.88
aF0.883333
aF0.44
aF0.44
aF0.64
aF0.79
aF0.86
aF0.85
aF0.85
aF0.43
aF0.43
aF0.62
aF0.79
aF0.83
aF0.85
aF0.85
aF0.41
aF0.41
aF0.6
aF0.78
aF0.8
aF0.84
aF0.833333
aF0.38
aF0.38
aF0.58
aF0.77
aF0.79
aF0.83
aF0.816667
aF0.37
aF0.37
aF0.55
aF0.77
aF0.78
aF0.81
aF0.816667
aF0.34
aF0.34
aF0.52
aF0.74
aF0.74
aF0.79
aF0.8
aF0.32
aF0.32
aF0.49
aF0.73
aF0.71
aF0.76
aF0.783333
aF0.29
aF0.29
aF0.48
aF0.71
aF0.7
aF0.75
aF0.783333
aF0.26
aF0.26
aF0.46
aF0.69
aF0.68
aF0.73
aF0.766667
aF0.23
aF0.23
aF0.45
aF0.65
aF0.64
aF0.71
aF0.766667
aF0.21
aF0.21
aF0.41
aF0.62
aF0.6
aF0.69
aF0.733333
aF0.18
aF0.18
aF0.39
aF0.6
aF0.57
aF0.68
aF0.716667
aF0.16
aF0.16
aF0.38
aF0.58
aF0.54
aF0.6
aF0.65
aF0.15
aF0.15
aF0.35
aF0.57
aF0.53
aF0.55
aF0.583333
aF0.13
aF0.13
aF0.29
aF0.53
aF0.47
aF0.5
aF0.516667
aF0.12
aF0.12
aF0.29
aF0.48
aF0.44
aF0.44
aF0.466667
aF0.11
aF0.11
aF0.28
aF0.44
aF0.37
aF0.42
aF0.45
aF0.11
aF0.11
aF0.27
aF0.41
aF0.34
aF0.38
aF0.416667
aF0.08
aF0.08
aF0.24
aF0.37
aF0.3
aF0.35
aF0.366667
aF0.05
aF0.05
aF0.23
aF0.35
aF0.28
aF0.31
aF0.35
aF0.04
aF0.04
aF0.21
aF0.31
aF0.26
aF0.26
aF0.333333
aF0.03
aF0.03
aF0.2
aF0.27
aF0.24
aF0.21
aF0.283333
aF0.03
aF0.03
aF0.19
aF0.21
aF0.21
aF0.19
aF0.233333
aF0.02
aF0.02
aF0.16
aF0.18
aF0.18
aF0.18
aF0.233333
aF0.01
aF0.01
aF0.13
aF0.18
aF0.15
aF0.15
aF0.15
aF0.01
aF0.01
aF0.1
aF0.16
aF0.13
aF0.14
aF0.133333
aF0.01
aF0.01
aF0.1
aF0.14
aF0.11
aF0.13
aF0.133333
aF0.01
aF0.01
aF0.08
aF0.11
aF0.08
aF0.12
aF0.116667
aF0.01
aF0.01
aF0.07
aF0.09
aF0.05
aF0.12
aF0.116667
aF0.01
aF0.01
aF0.05
aF0.08
aF0.05
aF0.11
aF0.116667
aF0.01
aF0.01
aF0.04
aF0.07
aF0.03
aF0.09
aF0.0833333
aF0.0
aF0.0
aF0.04
aF0.05
aF0.03
aF0.08
aF0.0833333
aF0.0
aF0.0
aF0.04
aF0.05
aF0.03
aF0.06
aF0.0833333
aF0.0
aF0.0
aF0.03
aF0.05
aF0.02
aF0.06
aF0.0833333
aF0.0
aF0.0
aF0.03
aF0.03
aF0.02
aF0.05
aF0.0666667
aF0.0
aF0.0
aF0.03
aF0.03
aF0.02
aF0.04
aF0.0666667
aF0.0
aF0.0
aF0.02
aF0.02
aF0.02
aF0.04
aF0.0666667
aF0.0
aF0.0
aF0.02
aF0.01
aF0.02
aF0.03
aF0.05
aF0.0
aF0.0
aF0.01
aF0.01
aF0.02
aF0.03
aF0.05
aF0.0
aF0.0
aF0.0
aF0.01
aF0.01
aF0.03
aF0.05
aF0.0
aF0.0
aF0.0
aF0.01
aF0.0
aF0.03
aF0.0333333
aF0.0
aF0.0
aF0.0
aF0.01
aF0.0
aF0.03
aF0.0333333
aF0.0
aF0.0
aF0.0
aF0.0
aF0.0
aF0.01
aF0.0166667
aF0.0
aF0.0
aF0.0
aF0.0
aF0.0
aF0.0
aF0.0
aF0.0
aF0.0
aF0.0
aF0.0
aF0.0
aF0.0
aF0.0
aF0.0
aF0.0
aF0.0
aF0.0
aF0.0
aF0.0
aF0.0
aF0.0
aF0.0
aF0.0
aF0.0
aF0.0
aF0.0
aF0.0
aF0.0
aF0.0
aF0.0
aF0.0
aF0.0
aF0.0
aF0.0
aF0.0
aF0.0
aF0.0
aF0.0
aF0.0
aF0.0
aF0.0
aF0.0
aF0.0
aF0.0
aF0.0
aF0.0
aF0.0
aF0.0
aF0.0
aF0.0
aF0.0
aF0.0
aF0.0
aF0.0
aF0.0
aF0.0
aF0.0
aF0.0
aF0.0
aF0.0
aF0.0
aF0.0
aF0.0
aF0.0
aF0.0
aF0.0
aF0.0
aF0.0
aF0.0
aF0.0
aF0.0
aF0.0
aF0.0
aF0.0
aF0.0
aF0.0
aF0.0
aF0.0
aF0.0
aF0.0
aF0.0
aF0.0
aF0.0
aF0.0
aF0.0
aF0.0
aF0.0
aF0.0
aF0.0
aF0.0
aF0.0
aF0.0
aF0.0
aF0.0
aF0.0
aF0.0
aF0.0
aF0.0
aF0.0
aF0.0
aF0.0
aF0.0
aF0.0
aF0.0
aF0.0
aF0.0
aF0.0
aF0.0
aF0.0
aF0.0
aF0.0
aF0.0
aF0.0
aF0.0
aF0.0
aF0.0
aF0.0
aF0.0
aF1.0
aF1.0
aF0.975
aF0.975
aF0.975
aF0.975
aF0.975
aF0.975
aF1.0
aF1.0
aF1.0
aF1.0
aF1.0
aF1.0
aF1.0
aF1.0
aF1.0
aF1.0
aF1.0
aF1.0
aF1.0
aF1.0
aF1.0
aF0.975
aF0.975
aF0.975
aF0.975
aF0.975
aF0.975
aF0.975
aF0.975
aF1.0
aF1.0
aF1.0
aF1.0
aF1.0
aF1.0
aF1.0
aF1.0
aF1.0
aF1.0
aF1.0
aF1.0
aF1.0
aF1.0
aF1.0
aF1.0
aF1.0
aF1.0
aF1.0
aF1.0
aF1.0
aF1.0
aF1.0
aF1.0
aF1.0
aF1.0
aF1.0
aF1.0
aF1.0
aF1.0
aF1.0
aF1.0
aF1.0
aF1.0
aF0.975
aF0.975
aF0.975
aF0.975
aF0.975
aF0.975
aF1.0
aF1.0
aF1.0
aF1.0
aF1.0
aF1.0
aF1.0
aF1.0
aF1.0
aF1.0
aF1.0
aF1.0
aF1.0
aF1.0
aF1.0
aF0.975
aF0.975
aF0.975
aF0.975
aF0.975
aF0.975
aF0.975
aF0.975
aF1.0
aF1.0
aF1.0
aF1.0
aF1.0
aF1.0
aF1.0
aF1.0
aF1.0
aF1.0
aF1.0
aF1.0
aF1.0
aF1.0
aF1.0
aF1.0
aF1.0
aF1.0
aF1.0
aF1.0
aF1.0
aF1.0
aF1.0
aF1.0
aF1.0
aF1.0
aF1.0
aF1.0
aF1.0
aF1.0
aF1.0
aF1.0
aF0.975
aF0.975
aF0.975
aF0.975
aF0.975
aF0.975
aF0.975
aF0.975
aF0.975
aF0.975
aF0.975
aF0.975
aF1.0
aF1.0
aF1.0
aF1.0
aF1.0
aF1.0
aF1.0
aF1.0
aF1.0
aF0.975
aF0.975
aF0.975
aF0.975
aF0.975
aF0.975
aF0.975
aF0.975
aF0.975
aF0.975
aF0.975
aF0.975
aF0.975
aF0.975
aF1.0
aF1.0
aF1.0
aF1.0
aF1.0
aF1.0
aF1.0
aF1.0
aF1.0
aF1.0
aF1.0
aF1.0
aF1.0
aF1.0
aF1.0
aF1.0
aF1.0
aF1.0
aF1.0
aF1.0
aF1.0
aF1.0
aF1.0
aF1.0
aF1.0
aF1.0
aF1.0
aF1.0
aF0.975
aF0.975
aF0.975
aF0.975
aF0.975
aF0.975
aF0.975
aF0.975
aF0.975
aF0.975
aF0.975
aF0.975
aF1.0
aF1.0
aF1.0
aF1.0
aF1.0
aF1.0
aF1.0
aF1.0
aF1.0
aF0.975
aF0.975
aF0.975
aF0.975
aF0.975
aF0.975
aF0.975
aF0.975
aF0.975
aF0.975
aF0.975
aF0.975
aF0.975
aF0.975
aF1.0
aF1.0
aF1.0
aF1.0
aF1.0
aF1.0
aF1.0
aF1.0
aF1.0
aF1.0
aF1.0
aF1.0
aF1.0
aF1.0
aF1.0
aF1.0
aF1.0
aF1.0
aF1.0
aF1.0
aF1.0
aF1.0
aF1.0
aF1.0
aF1.0
aF1.0
aF1.0
aF1.0
aF0.925
aF0.925
aF0.925
aF0.925
aF0.925
aF0.925
aF0.95
aF0.95
aF0.95
aF0.95
aF0.975
aF0.975
aF0.975
aF0.975
aF1.0
aF1.0
aF1.0
aF1.0
aF1.0
aF1.0
aF1.0
aF0.9
aF0.9
aF0.9
aF0.9
aF0.95
aF0.95
aF0.95
aF0.95
aF0.975
aF0.975
aF0.975
aF0.975
aF0.975
aF0.975
aF0.975
aF0.975
aF1.0
aF1.0
aF1.0
aF1.0
aF1.0
aF0.9
aF0.9
aF0.9
aF0.9
aF0.975
aF0.975
aF1.0
aF1.0
aF1.0
aF1.0
aF1.0
aF1.0
aF1.0
aF1.0
aF1.0
aF1.0
aF1.0
aF1.0
aF1.0
aF1.0
aF1.0
aF0.925
aF0.925
aF0.925
aF0.925
aF0.925
aF0.925
aF0.95
aF0.95
aF0.95
aF0.95
aF0.975
aF0.975
aF0.975
aF0.975
aF1.0
aF1.0
aF1.0
aF1.0
aF1.0
aF1.0
aF1.0
aF0.9
aF0.9
aF0.9
aF0.9
aF0.95
aF0.95
aF0.95
aF0.95
aF0.975
aF0.975
aF0.975
aF0.975
aF0.975
aF0.975
aF0.975
aF0.975
aF1.0
aF1.0
aF1.0
aF1.0
aF1.0
aF0.9
aF0.9
aF0.9
aF0.9
aF0.975
aF0.975
aF1.0
aF1.0
aF1.0
aF1.0
aF1.0
aF1.0
aF1.0
aF1.0
aF1.0
aF1.0
aF1.0
aF1.0
aF1.0
aF1.0
aF1.0
aF0.725
aF0.725
aF0.725
aF0.725
aF0.75
aF0.75
aF0.875
aF0.875
aF0.925
aF0.925
aF0.95
aF0.95
aF0.975
aF0.975
aF0.975
aF0.975
aF1.0
aF1.0
aF1.0
aF1.0
aF1.0
aF0.775
aF0.775
aF0.775
aF0.775
aF0.775
aF0.775
aF0.85
aF0.85
aF0.9
aF0.9
aF0.95
aF0.95
aF0.975
aF0.975
aF0.975
aF0.975
aF0.975
aF0.975
aF1.0
aF1.0
aF1.0
aF0.725
aF0.725
aF0.725
aF0.725
aF0.75
aF0.75
aF0.8
aF0.8
aF0.9
aF0.9
aF1.0
aF1.0
aF1.0
aF1.0
aF1.0
aF1.0
aF1.0
aF1.0
aF1.0
aF1.0
aF1.0
aF0.725
aF0.725
aF0.725
aF0.725
aF0.75
aF0.75
aF0.875
aF0.875
aF0.925
aF0.925
aF0.95
aF0.95
aF0.975
aF0.975
aF0.975
aF0.975
aF1.0
aF1.0
aF1.0
aF1.0
aF1.0
aF0.775
aF0.775
aF0.775
aF0.775
aF0.775
aF0.775
aF0.85
aF0.85
aF0.9
aF0.9
aF0.95
aF0.95
aF0.975
aF0.975
aF0.975
aF0.975
aF0.975
aF0.975
aF1.0
aF1.0
aF1.0
aF0.725
aF0.725
aF0.725
aF0.725
aF0.75
aF0.75
aF0.8
aF0.8
aF0.9
aF0.9
aF1.0
aF1.0
aF1.0
aF1.0
aF1.0
aF1.0
aF1.0
aF1.0
aF1.0
aF1.0
aF1.0
aF0.45
aF0.45
aF0.475
aF0.475
aF0.575
aF0.575
aF0.675
aF0.675
aF0.725
aF0.725
aF0.875
aF0.875
aF0.95
aF0.95
aF0.975
aF0.975
aF0.975
aF0.975
aF1.0
aF1.0
aF1.0
aF0.7
aF0.7
aF0.7
aF0.7
aF0.75
aF0.75
aF0.775
aF0.775
aF0.775
aF0.775
aF0.85
aF0.85
aF0.95
aF0.95
aF0.975
aF0.975
aF0.975
aF0.975
aF0.975
aF0.975
aF1.0
aF0.525
aF0.525
aF0.55
aF0.55
aF0.6
aF0.6
aF0.675
aF0.675
aF0.75
aF0.75
aF0.85
aF0.85
aF1.0
aF1.0
aF1.0
aF1.0
aF1.0
aF1.0
aF1.0
aF1.0
aF1.0
aF0.45
aF0.45
aF0.475
aF0.475
aF0.575
aF0.575
aF0.675
aF0.675
aF0.725
aF0.725
aF0.875
aF0.875
aF0.95
aF0.95
aF0.975
aF0.975
aF0.975
aF0.975
aF1.0
aF1.0
aF1.0
aF0.7
aF0.7
aF0.7
aF0.7
aF0.75
aF0.75
aF0.775
aF0.775
aF0.775
aF0.775
aF0.85
aF0.85
aF0.95
aF0.95
aF0.975
aF0.975
aF0.975
aF0.975
aF0.975
aF0.975
aF1.0
aF0.525
aF0.525
aF0.55
aF0.55
aF0.6
aF0.6
aF0.675
aF0.675
aF0.75
aF0.75
aF0.85
aF0.85
aF1.0
aF1.0
aF1.0
aF1.0
aF1.0
aF1.0
aF1.0
aF1.0
aF1.0
aF0.075
aF0.075
aF0.075
aF0.075
aF0.2
aF0.2
aF0.4
aF0.4
aF0.575
aF0.575
aF0.725
aF0.725
aF0.875
aF0.875
aF0.95
aF0.95
aF0.975
aF0.975
aF0.975
aF0.975
aF1.0
aF0.15
aF0.15
aF0.175
aF0.175
aF0.35
aF0.35
aF0.675
aF0.675
aF0.75
aF0.75
aF0.775
aF0.775
aF0.85
aF0.85
aF0.95
aF0.95
aF0.975
aF0.975
aF0.975
aF0.975
aF1.0
aF0.05
aF0.05
aF0.1
aF0.1
aF0.175
aF0.175
aF0.45
aF0.45
aF0.6
aF0.6
aF0.725
aF0.725
aF0.85
aF0.85
aF1.0
aF1.0
aF1.0
aF1.0
aF1.0
aF1.0
aF1.0
aF0.075
aF0.075
aF0.075
aF0.075
aF0.2
aF0.2
aF0.4
aF0.4
aF0.575
aF0.575
aF0.725
aF0.725
aF0.875
aF0.875
aF0.95
aF0.95
aF0.975
aF0.975
aF0.975
aF0.975
aF1.0
aF0.15
aF0.15
aF0.175
aF0.175
aF0.35
aF0.35
aF0.675
aF0.675
aF0.75
aF0.75
aF0.775
aF0.775
aF0.85
aF0.85
aF0.95
aF0.95
aF0.975
aF0.975
aF0.975
aF0.975
aF1.0
aF0.05
aF0.05
aF0.1
aF0.1
aF0.175
aF0.175
aF0.45
aF0.45
aF0.6
aF0.6
aF0.725
aF0.725
aF0.85
aF0.85
aF1.0
aF1.0
aF1.0
aF1.0
aF1.0
aF1.0
aF1.0
aF0.05
aF0.05
aF0.05
aF0.05
aF0.05
aF0.05
aF0.075
aF0.075
aF0.375
aF0.375
aF0.575
aF0.575
aF0.725
aF0.725
aF0.925
aF0.925
aF0.95
aF0.95
aF0.975
aF0.975
aF1.0
aF0.075
aF0.075
aF0.1
aF0.1
aF0.1
aF0.1
aF0.15
aF0.15
aF0.5
aF0.5
aF0.75
aF0.75
aF0.775
aF0.775
aF0.9
aF0.9
aF0.975
aF0.975
aF0.975
aF0.975
aF0.975
aF0.05
aF0.05
aF0.05
aF0.05
aF0.05
aF0.05
aF0.05
aF0.05
aF0.275
aF0.275
aF0.6
aF0.6
aF0.75
aF0.75
aF0.9
aF0.9
aF1.0
aF1.0
aF1.0
aF1.0
aF1.0
aF0.05
aF0.05
aF0.05
aF0.05
aF0.05
aF0.05
aF0.075
aF0.075
aF0.375
aF0.375
aF0.575
aF0.575
aF0.725
aF0.725
aF0.925
aF0.925
aF0.95
aF0.95
aF0.975
aF0.975
aF1.0
aF0.075
aF0.075
aF0.1
aF0.1
aF0.1
aF0.1
aF0.15
aF0.15
aF0.5
aF0.5
aF0.75
aF0.75
aF0.775
aF0.775
aF0.9
aF0.9
aF0.975
aF0.975
aF0.975
aF0.975
aF0.975
aF0.05
aF0.05
aF0.05
aF0.05
aF0.05
aF0.05
aF0.05
aF0.05
aF0.275
aF0.275
aF0.6
aF0.6
aF0.75
aF0.75
aF0.9
aF0.9
aF1.0
aF1.0
aF1.0
aF1.0
aF1.0
aF0.05
aF0.05
aF0.05
aF0.05
aF0.05
aF0.05
aF0.05
aF0.05
aF0.075
aF0.075
aF0.4
aF0.4
aF0.675
aF0.675
aF0.875
aF0.875
aF0.95
aF0.95
aF0.975
aF0.975
aF0.975
aF0.075
aF0.075
aF0.075
aF0.075
aF0.075
aF0.075
aF0.1
aF0.1
aF0.15
aF0.15
aF0.675
aF0.675
aF0.775
aF0.775
aF0.85
aF0.85
aF0.95
aF0.95
aF0.975
aF0.975
aF0.975
aF0.05
aF0.05
aF0.05
aF0.05
aF0.05
aF0.05
aF0.05
aF0.05
aF0.05
aF0.05
aF0.45
aF0.45
aF0.675
aF0.675
aF0.8
aF0.8
aF1.0
aF1.0
aF1.0
aF1.0
aF1.0
aF0.05
aF0.05
aF0.05
aF0.05
aF0.05
aF0.05
aF0.05
aF0.05
aF0.075
aF0.075
aF0.4
aF0.4
aF0.675
aF0.675
aF0.875
aF0.875
aF0.95
aF0.95
aF0.975
aF0.975
aF0.975
aF0.075
aF0.075
aF0.075
aF0.075
aF0.075
aF0.075
aF0.1
aF0.1
aF0.15
aF0.15
aF0.675
aF0.675
aF0.775
aF0.775
aF0.85
aF0.85
aF0.95
aF0.95
aF0.975
aF0.975
aF0.975
aF0.05
aF0.05
aF0.05
aF0.05
aF0.05
aF0.05
aF0.05
aF0.05
aF0.05
aF0.05
aF0.45
aF0.45
aF0.675
aF0.675
aF0.8
aF0.8
aF1.0
aF1.0
aF1.0
aF1.0
aF1.0
aF0.05
aF0.05
aF0.05
aF0.05
aF0.05
aF0.05
aF0.05
aF0.05
aF0.05
aF0.05
aF0.2
aF0.2
aF0.575
aF0.575
aF0.75
aF0.75
aF0.925
aF0.925
aF0.975
aF0.975
aF0.975
aF0.075
aF0.075
aF0.075
aF0.075
aF0.075
aF0.075
aF0.075
aF0.075
aF0.1
aF0.1
aF0.35
aF0.35
aF0.75
aF0.75
aF0.775
aF0.775
aF0.95
aF0.95
aF0.975
aF0.975
aF0.975
aF0.05
aF0.05
aF0.05
aF0.05
aF0.05
aF0.05
aF0.05
aF0.05
aF0.05
aF0.05
aF0.175
aF0.175
aF0.6
aF0.6
aF0.75
aF0.75
aF0.975
aF0.975
aF1.0
aF1.0
aF1.0
aF0.05
aF0.05
aF0.05
aF0.05
aF0.05
aF0.05
aF0.05
aF0.05
aF0.05
aF0.05
aF0.2
aF0.2
aF0.575
aF0.575
aF0.75
aF0.75
aF0.925
aF0.925
aF0.975
aF0.975
aF0.975
aF0.075
aF0.075
aF0.075
aF0.075
aF0.075
aF0.075
aF0.075
aF0.075
aF0.1
aF0.1
aF0.35
aF0.35
aF0.75
aF0.75
aF0.775
aF0.775
aF0.95
aF0.95
aF0.975
aF0.975
aF0.975
aF0.05
aF0.05
aF0.05
aF0.05
aF0.05
aF0.05
aF0.05
aF0.05
aF0.05
aF0.05
aF0.175
aF0.175
aF0.6
aF0.6
aF0.75
aF0.75
aF0.975
aF0.975
aF1.0
aF1.0
aF1.0
aF0.05
aF0.05
aF0.05
aF0.05
aF0.05
aF0.05
aF0.05
aF0.05
aF0.05
aF0.05
aF0.075
aF0.075
aF0.475
aF0.475
aF0.725
aF0.725
aF0.925
aF0.925
aF0.975
aF0.975
aF0.975
aF0.075
aF0.075
aF0.075
aF0.075
aF0.075
aF0.075
aF0.075
aF0.075
aF0.1
aF0.1
aF0.175
aF0.175
aF0.7
aF0.7
aF0.775
aF0.775
aF0.9
aF0.9
aF0.975
aF0.975
aF0.975
aF0.05
aF0.05
aF0.05
aF0.05
aF0.05
aF0.05
aF0.05
aF0.05
aF0.05
aF0.05
aF0.1
aF0.1
aF0.55
aF0.55
aF0.725
aF0.725
aF0.9
aF0.9
aF1.0
aF1.0
aF1.0
aF0.05
aF0.05
aF0.05
aF0.05
aF0.05
aF0.05
aF0.05
aF0.05
aF0.05
aF0.05
aF0.075
aF0.075
aF0.475
aF0.475
aF0.725
aF0.725
aF0.925
aF0.925
aF0.975
aF0.975
aF0.975
aF0.075
aF0.075
aF0.075
aF0.075
aF0.075
aF0.075
aF0.075
aF0.075
aF0.1
aF0.1
aF0.175
aF0.175
aF0.7
aF0.7
aF0.775
aF0.775
aF0.9
aF0.9
aF0.975
aF0.975
aF0.975
aF0.05
aF0.05
aF0.05
aF0.05
aF0.05
aF0.05
aF0.05
aF0.05
aF0.05
aF0.05
aF0.1
aF0.1
aF0.55
aF0.55
aF0.725
aF0.725
aF0.9
aF0.9
aF1.0
aF1.0
aF1.0
aF0.075
aF0.075
aF0.05
aF0.05
aF0.05
aF0.05
aF0.05
aF0.05
aF0.05
aF0.05
aF0.075
aF0.075
aF0.45
aF0.45
aF0.725
aF0.725
aF0.925
aF0.925
aF0.975
aF0.975
aF0.975
aF0.15
aF0.15
aF0.075
aF0.075
aF0.075
aF0.075
aF0.075
aF0.075
aF0.075
aF0.075
aF0.15
aF0.15
aF0.7
aF0.7
aF0.775
aF0.775
aF0.9
aF0.9
aF0.975
aF0.975
aF0.975
aF0.05
aF0.05
aF0.05
aF0.05
aF0.05
aF0.05
aF0.05
aF0.05
aF0.05
aF0.05
aF0.05
aF0.05
aF0.525
aF0.525
aF0.725
aF0.725
aF0.9
aF0.9
aF1.0
aF1.0
aF1.0
aF0.075
aF0.075
aF0.05
aF0.05
aF0.05
aF0.05
aF0.05
aF0.05
aF0.05
aF0.05
aF0.075
aF0.075
aF0.45
aF0.45
aF0.725
aF0.725
aF0.925
aF0.925
aF0.975
aF0.975
aF0.975
aF0.15
aF0.15
aF0.075
aF0.075
aF0.075
aF0.075
aF0.075
aF0.075
aF0.075
aF0.075
aF0.15
aF0.15
aF0.7
aF0.7
aF0.775
aF0.775
aF0.9
aF0.9
aF0.975
aF0.975
aF0.975
aF0.05
aF0.05
aF0.05
aF0.05
aF0.05
aF0.05
aF0.05
aF0.05
aF0.05
aF0.05
aF0.05
aF0.05
aF0.525
aF0.525
aF0.725
aF0.725
aF0.9
aF0.9
aF1.0
aF1.0
aF1.0
aF0.05
aF0.05
aF0.05
aF0.05
aF0.05
aF0.05
aF0.05
aF0.05
aF0.05
aF0.05
aF0.075
aF0.075
aF0.475
aF0.475
aF0.725
aF0.725
aF0.925
aF0.925
aF0.975
aF0.975
aF0.975
aF0.075
aF0.075
aF0.075
aF0.075
aF0.075
aF0.075
aF0.075
aF0.075
aF0.1
aF0.1
aF0.175
aF0.175
aF0.7
aF0.7
aF0.775
aF0.775
aF0.9
aF0.9
aF0.975
aF0.975
aF0.975
aF0.05
aF0.05
aF0.05
aF0.05
aF0.05
aF0.05
aF0.05
aF0.05
aF0.05
aF0.05
aF0.1
aF0.1
aF0.55
aF0.55
aF0.725
aF0.725
aF0.9
aF0.9
aF1.0
aF1.0
aF1.0
aF0.05
aF0.05
aF0.05
aF0.05
aF0.05
aF0.05
aF0.05
aF0.05
aF0.05
aF0.05
aF0.075
aF0.075
aF0.475
aF0.475
aF0.725
aF0.725
aF0.925
aF0.925
aF0.975
aF0.975
aF0.975
aF0.075
aF0.075
aF0.075
aF0.075
aF0.075
aF0.075
aF0.075
aF0.075
aF0.1
aF0.1
aF0.175
aF0.175
aF0.7
aF0.7
aF0.775
aF0.775
aF0.9
aF0.9
aF0.975
aF0.975
aF0.975
aF0.05
aF0.05
aF0.05
aF0.05
aF0.05
aF0.05
aF0.05
aF0.05
aF0.05
aF0.05
aF0.1
aF0.1
aF0.55
aF0.55
aF0.725
aF0.725
aF0.9
aF0.9
aF1.0
aF1.0
aF1.0
aF0.05
aF0.05
aF0.05
aF0.05
aF0.05
aF0.05
aF0.05
aF0.05
aF0.05
aF0.05
aF0.2
aF0.2
aF0.575
aF0.575
aF0.75
aF0.75
aF0.925
aF0.925
aF0.975
aF0.975
aF0.975
aF0.075
aF0.075
aF0.075
aF0.075
aF0.075
aF0.075
aF0.075
aF0.075
aF0.1
aF0.1
aF0.35
aF0.35
aF0.75
aF0.75
aF0.775
aF0.775
aF0.95
aF0.95
aF0.975
aF0.975
aF0.975
aF0.05
aF0.05
aF0.05
aF0.05
aF0.05
aF0.05
aF0.05
aF0.05
aF0.05
aF0.05
aF0.175
aF0.175
aF0.6
aF0.6
aF0.75
aF0.75
aF0.975
aF0.975
aF1.0
aF1.0
aF1.0
aF0.05
aF0.05
aF0.05
aF0.05
aF0.05
aF0.05
aF0.05
aF0.05
aF0.05
aF0.05
aF0.2
aF0.2
aF0.575
aF0.575
aF0.75
aF0.75
aF0.925
aF0.925
aF0.975
aF0.975
aF0.975
aF0.075
aF0.075
aF0.075
aF0.075
aF0.075
aF0.075
aF0.075
aF0.075
aF0.1
aF0.1
aF0.35
aF0.35
aF0.75
aF0.75
aF0.775
aF0.775
aF0.95
aF0.95
aF0.975
aF0.975
aF0.975
aF0.05
aF0.05
aF0.05
aF0.05
aF0.05
aF0.05
aF0.05
aF0.05
aF0.05
aF0.05
aF0.175
aF0.175
aF0.6
aF0.6
aF0.75
aF0.75
aF0.975
aF0.975
aF1.0
aF1.0
aF1.0
aF0.05
aF0.05
aF0.05
aF0.05
aF0.05
aF0.05
aF0.05
aF0.05
aF0.075
aF0.075
aF0.4
aF0.4
aF0.675
aF0.675
aF0.875
aF0.875
aF0.95
aF0.95
aF0.975
aF0.975
aF0.975
aF0.075
aF0.075
aF0.075
aF0.075
aF0.075
aF0.075
aF0.1
aF0.1
aF0.15
aF0.15
aF0.675
aF0.675
aF0.775
aF0.775
aF0.85
aF0.85
aF0.95
aF0.95
aF0.975
aF0.975
aF0.975
aF0.05
aF0.05
aF0.05
aF0.05
aF0.05
aF0.05
aF0.05
aF0.05
aF0.05
aF0.05
aF0.45
aF0.45
aF0.675
aF0.675
aF0.8
aF0.8
aF1.0
aF1.0
aF1.0
aF1.0
aF1.0
aF0.05
aF0.05
aF0.05
aF0.05
aF0.05
aF0.05
aF0.05
aF0.05
aF0.075
aF0.075
aF0.4
aF0.4
aF0.675
aF0.675
aF0.875
aF0.875
aF0.95
aF0.95
aF0.975
aF0.975
aF0.975
aF0.075
aF0.075
aF0.075
aF0.075
aF0.075
aF0.075
aF0.1
aF0.1
aF0.15
aF0.15
aF0.675
aF0.675
aF0.775
aF0.775
aF0.85
aF0.85
aF0.95
aF0.95
aF0.975
aF0.975
aF0.975
aF0.05
aF0.05
aF0.05
aF0.05
aF0.05
aF0.05
aF0.05
aF0.05
aF0.05
aF0.05
aF0.45
aF0.45
aF0.675
aF0.675
aF0.8
aF0.8
aF1.0
aF1.0
aF1.0
aF1.0
aF1.0
aF0.05
aF0.05
aF0.05
aF0.05
aF0.05
aF0.05
aF0.075
aF0.075
aF0.375
aF0.375
aF0.575
aF0.575
aF0.725
aF0.725
aF0.925
aF0.925
aF0.95
aF0.95
aF0.975
aF0.975
aF1.0
aF0.075
aF0.075
aF0.1
aF0.1
aF0.1
aF0.1
aF0.15
aF0.15
aF0.5
aF0.5
aF0.75
aF0.75
aF0.775
aF0.775
aF0.9
aF0.9
aF0.975
aF0.975
aF0.975
aF0.975
aF0.975
aF0.05
aF0.05
aF0.05
aF0.05
aF0.05
aF0.05
aF0.05
aF0.05
aF0.275
aF0.275
aF0.6
aF0.6
aF0.75
aF0.75
aF0.9
aF0.9
aF1.0
aF1.0
aF1.0
aF1.0
aF1.0
aF0.05
aF0.05
aF0.05
aF0.05
aF0.05
aF0.05
aF0.075
aF0.075
aF0.375
aF0.375
aF0.575
aF0.575
aF0.725
aF0.725
aF0.925
aF0.925
aF0.95
aF0.95
aF0.975
aF0.975
aF1.0
aF0.075
aF0.075
aF0.1
aF0.1
aF0.1
aF0.1
aF0.15
aF0.15
aF0.5
aF0.5
aF0.75
aF0.75
aF0.775
aF0.775
aF0.9
aF0.9
aF0.975
aF0.975
aF0.975
aF0.975
aF0.975
aF0.05
aF0.05
aF0.05
aF0.05
aF0.05
aF0.05
aF0.05
aF0.05
aF0.275
aF0.275
aF0.6
aF0.6
aF0.75
aF0.75
aF0.9
aF0.9
aF1.0
aF1.0
aF1.0
aF1.0
aF1.0
aF0.075
aF0.075
aF0.075
aF0.075
aF0.2
aF0.2
aF0.4
aF0.4
aF0.575
aF0.575
aF0.725
aF0.725
aF0.875
aF0.875
aF0.95
aF0.95
aF0.975
aF0.975
aF0.975
aF0.975
aF1.0
aF0.15
aF0.15
aF0.175
aF0.175
aF0.35
aF0.35
aF0.675
aF0.675
aF0.75
aF0.75
aF0.775
aF0.775
aF0.85
aF0.85
aF0.95
aF0.95
aF0.975
aF0.975
aF0.975
aF0.975
aF1.0
aF0.05
aF0.05
aF0.1
aF0.1
aF0.175
aF0.175
aF0.45
aF0.45
aF0.6
aF0.6
aF0.725
aF0.725
aF0.85
aF0.85
aF1.0
aF1.0
aF1.0
aF1.0
aF1.0
aF1.0
aF1.0
aF1.0
aF1.0
aF1.0
aF1.0
aF1.0
aF1.0
aF1.0
aF1.0
aF1.0
aF1.0
aF1.0
aF1.0
aF1.0
aF1.0
aF1.0
aF1.0
aF1.0
aF1.0
aF1.0
aF1.0
aF1.0
aF1.0
aF1.0
aF1.0
aF1.0
aF1.0
aF1.0
aF1.0
aF1.0
aF1.0
aF1.0
aF1.0
aF1.0
aF1.0
aF1.0
aF1.0
aF1.0
aF1.0
aF1.0
aF1.0
aF1.0
aF1.0
aF1.0
aF1.0
aF1.0
aF1.0
aF1.0
aF1.0
aF1.0
aF1.0
aF1.0
aF1.0
aF1.0
aF1.0
aF1.0
aF1.0
aF1.0
aF1.0
aF1.0
aF1.0
aF1.0
aF1.0
aF1.0
aF1.0
aF1.0
aF1.0
aF1.0
aF1.0
aF1.0
aF1.0
aF1.0
aF1.0
aF1.0
aF1.0
aF1.0
aF1.0
aF1.0
aF1.0
aF1.0
aF1.0
aF1.0
aF1.0
aF1.0
aF1.0
aF1.0
aF1.0
aF1.0
aF1.0
aF1.0
aF1.0
aF1.0
aF1.0
aF1.0
aF1.0
aF1.0
aF1.0
aF1.0
aF1.0
aF1.0
aF1.0
aF1.0
aF1.0
aF1.0
aF1.0
aF1.0
aF1.0
aF1.0
aF1.0
aF1.0
aF1.0
aF1.0
aF1.0
aF1.0
aF1.0
aF1.0
aF1.0
aF1.0
aF1.0
aF1.0
aF1.0
aF1.0
aF1.0
aF1.0
aF1.0
aF1.0
aF1.0
aF1.0
aF1.0
aF1.0
aF1.0
aF1.0
aF1.0
aF0.925
aF0.95
aF0.95
aF0.975
aF1.0
aF1.0
aF1.0
aF1.0
aF1.0
aF1.0
aF1.0
aF0.975
aF0.975
aF0.975
aF1.0
aF1.0
aF1.0
aF1.0
aF1.0
aF1.0
aF1.0
aF1.0
aF1.0
aF1.0
aF1.0
aF1.0
aF1.0
aF1.0
aF1.0
aF1.0
aF1.0
aF1.0
aF1.0
aF0.55
aF0.575
aF0.675
aF0.825
aF0.975
aF1.0
aF1.0
aF1.0
aF1.0
aF1.0
aF1.0
aF0.75
aF0.8
aF0.9
aF0.95
aF0.975
aF1.0
aF1.0
aF1.0
aF1.0
aF1.0
aF1.0
aF0.75
aF0.75
aF0.825
aF0.975
aF1.0
aF1.0
aF1.0
aF1.0
aF1.0
aF1.0
aF1.0
aF0.475
aF0.475
aF0.475
aF0.55
aF0.8
aF0.975
aF1.0
aF1.0
aF1.0
aF1.0
aF1.0
aF0.625
aF0.625
aF0.65
aF0.75
aF0.95
aF0.975
aF1.0
aF1.0
aF1.0
aF1.0
aF1.0
aF0.7
aF0.725
aF0.75
aF0.75
aF0.95
aF1.0
aF1.0
aF1.0
aF1.0
aF1.0
aF1.0
aF0.425
aF0.425
aF0.45
aF0.475
aF0.55
aF0.825
aF0.975
aF1.0
aF1.0
aF1.0
aF1.0
aF0.625
aF0.625
aF0.625
aF0.625
aF0.75
aF0.95
aF1.0
aF1.0
aF1.0
aF1.0
aF1.0
aF0.7
aF0.7
aF0.7
aF0.725
aF0.75
aF0.975
aF1.0
aF1.0
aF1.0
aF1.0
aF1.0
aF0.425
aF0.425
aF0.425
aF0.45
aF0.475
aF0.675
aF0.95
aF1.0
aF1.0
aF1.0
aF1.0
aF0.625
aF0.625
aF0.625
aF0.625
aF0.65
aF0.9
aF0.975
aF1.0
aF1.0
aF1.0
aF1.0
aF0.7
aF0.7
aF0.7
aF0.7
aF0.75
aF0.825
aF1.0
aF1.0
aF1.0
aF1.0
aF1.0
aF0.425
aF0.425
aF0.425
aF0.425
aF0.475
aF0.575
aF0.95
aF1.0
aF1.0
aF1.0
aF1.0
aF0.625
aF0.625
aF0.625
aF0.625
aF0.625
aF0.8
aF0.975
aF1.0
aF1.0
aF1.0
aF1.0
aF0.7
aF0.7
aF0.7
aF0.7
aF0.725
aF0.75
aF1.0
aF1.0
aF1.0
aF1.0
aF1.0
aF0.55
aF0.425
aF0.425
aF0.425
aF0.475
aF0.55
aF0.925
aF1.0
aF1.0
aF1.0
aF1.0
aF0.75
aF0.625
aF0.625
aF0.625
aF0.625
aF0.75
aF0.975
aF1.0
aF1.0
aF1.0
aF1.0
aF0.75
aF0.7
aF0.7
aF0.7
aF0.7
aF0.75
aF1.0
aF1.0
aF1.0
aF1.0
aF1.0
aF0.425
aF0.425
aF0.425
aF0.425
aF0.475
aF0.575
aF0.95
aF1.0
aF1.0
aF1.0
aF1.0
aF0.625
aF0.625
aF0.625
aF0.625
aF0.625
aF0.8
aF0.975
aF1.0
aF1.0
aF1.0
aF1.0
aF0.7
aF0.7
aF0.7
aF0.7
aF0.725
aF0.75
aF1.0
aF1.0
aF1.0
aF1.0
aF1.0
aF0.425
aF0.425
aF0.425
aF0.45
aF0.475
aF0.675
aF0.95
aF1.0
aF1.0
aF1.0
aF1.0
aF0.625
aF0.625
aF0.625
aF0.625
aF0.65
aF0.9
aF0.975
aF1.0
aF1.0
aF1.0
aF1.0
aF0.7
aF0.7
aF0.7
aF0.7
aF0.75
aF0.825
aF1.0
aF1.0
aF1.0
aF1.0
aF1.0
aF0.425
aF0.425
aF0.45
aF0.475
aF0.55
aF0.825
aF0.975
aF1.0
aF1.0
aF1.0
aF1.0
aF0.625
aF0.625
aF0.625
aF0.625
aF0.75
aF0.95
aF1.0
aF1.0
aF1.0
aF1.0
aF1.0
aF0.7
aF0.7
aF0.7
aF0.725
aF0.75
aF0.975
aF1.0
aF1.0
aF1.0
aF1.0
aF1.0
aF0.475
aF0.475
aF0.475
aF0.55
aF0.8
aF0.975
aF1.0
aF1.0
aF1.0
aF1.0
aF1.0
aF0.625
aF0.625
aF0.65
aF0.75
aF0.95
aF0.975
aF1.0
aF1.0
aF1.0
aF1.0
aF1.0
aF0.7
aF0.725
aF0.75
aF0.75
aF0.95
aF1.0
aF1.0
aF1.0
aF1.0
aF1.0
aF1.0
aF0.55
aF0.575
aF0.675
aF0.825
aF0.975
aF1.0
aF1.0
aF1.0
aF1.0
aF1.0
aF1.0
aF0.75
aF0.8
aF0.9
aF0.95
aF0.975
aF1.0
aF1.0
aF1.0
aF1.0
aF1.0
aF1.0
aF0.75
aF0.75
aF0.825
aF0.975
aF1.0
aF1.0
aF1.0
aF1.0
aF1.0
aF1.0
aF1.0
aF1.0
aF1.0
aF1.0
aF1.0
aF1.0
aF1.0
aF1.0
aF1.0
aF1.0
aF1.0
aF1.0
aF1.0
aF1.0
aF1.0
aF1.0
aF1.0
aF1.0
aF1.0
aF1.0
aF1.0
aF1.0
aF1.0
aF1.0
aF1.0
aF1.0
aF1.0
aF1.0
aF1.0
aF1.0
aF1.0
aF1.0
aF1.0
aF1.0
aF1.0
aF1.0
aF1.0
aF1.0
aF1.0
aF1.0
aF1.0
aF1.0
aF1.0
aF1.0
aF1.0
aF1.0
aF1.0
aF1.0
aF1.0
aF1.0
aF1.0
aF1.0
aF1.0
aF1.0
aF1.0
aF1.0
aF1.0
aF1.0
aF1.0
aF1.0
aF1.0
aF1.0
aF1.0
aF1.0
aF1.0
aF1.0
aF1.0
aF1.0
aF1.0
aF1.0
aF1.0
aF1.0
aF1.0
aF1.0
aF1.0
aF1.0
aF1.0
aF1.0
aF0.975
aF0.975
aF0.975
aF1.0
aF1.0
aF1.0
aF1.0
aF1.0
aF1.0
aF1.0
aF1.0
aF1.0
aF1.0
aF1.0
aF1.0
aF1.0
aF1.0
aF1.0
aF1.0
aF1.0
aF1.0
aF1.0
aF0.975
aF0.975
aF1.0
aF1.0
aF1.0
aF1.0
aF1.0
aF1.0
aF1.0
aF1.0
aF1.0
aF0.975
aF0.975
aF0.975
aF0.975
aF0.975
aF1.0
aF1.0
aF1.0
aF1.0
aF1.0
aF1.0
aF1.0
aF1.0
aF1.0
aF1.0
aF1.0
aF1.0
aF1.0
aF1.0
aF1.0
aF1.0
aF1.0
aF0.875
aF0.875
aF0.95
aF0.95
aF1.0
aF1.0
aF1.0
aF1.0
aF1.0
aF1.0
aF1.0
aF0.9
aF0.9
aF0.975
aF0.975
aF0.975
aF0.975
aF1.0
aF1.0
aF1.0
aF1.0
aF1.0
aF1.0
aF1.0
aF1.0
aF1.0
aF1.0
aF1.0
aF1.0
aF1.0
aF1.0
aF1.0
aF1.0
aF0.6
aF0.6
aF0.675
aF0.85
aF0.95
aF0.975
aF1.0
aF1.0
aF1.0
aF1.0
aF1.0
aF0.475
aF0.5
aF0.6
aF0.85
aF0.975
aF0.975
aF0.975
aF1.0
aF1.0
aF1.0
aF1.0
aF0.9
aF0.925
aF0.95
aF1.0
aF1.0
aF1.0
aF1.0
aF1.0
aF1.0
aF1.0
aF1.0
aF0.6
aF0.6
aF0.6
aF0.6
aF0.825
aF0.95
aF1.0
aF1.0
aF1.0
aF1.0
aF1.0
aF0.425
aF0.425
aF0.425
aF0.475
aF0.8
aF0.975
aF0.975
aF0.975
aF1.0
aF1.0
aF1.0
aF0.9
aF0.9
aF0.9
aF0.9
aF1.0
aF1.0
aF1.0
aF1.0
aF1.0
aF1.0
aF1.0
aF0.575
aF0.6
aF0.6
aF0.6
aF0.6
aF0.85
aF0.95
aF1.0
aF1.0
aF1.0
aF1.0
aF0.425
aF0.425
aF0.425
aF0.425
aF0.475
aF0.85
aF0.975
aF0.975
aF1.0
aF1.0
aF1.0
aF0.9
aF0.9
aF0.9
aF0.9
aF0.9
aF1.0
aF1.0
aF1.0
aF1.0
aF1.0
aF1.0
aF0.575
aF0.575
aF0.575
aF0.6
aF0.6
aF0.675
aF0.95
aF1.0
aF1.0
aF1.0
aF1.0
aF0.425
aF0.425
aF0.425
aF0.425
aF0.425
aF0.6
aF0.975
aF0.975
aF0.975
aF1.0
aF1.0
aF0.9
aF0.9
aF0.9
aF0.9
aF0.9
aF0.95
aF1.0
aF1.0
aF1.0
aF1.0
aF1.0
aF0.575
aF0.575
aF0.575
aF0.6
aF0.6
aF0.6
aF0.875
aF0.975
aF1.0
aF1.0
aF1.0
aF0.425
aF0.425
aF0.425
aF0.425
aF0.425
aF0.5
aF0.9
aF0.975
aF0.975
aF1.0
aF1.0
aF0.9
aF0.9
aF0.9
aF0.9
aF0.9
aF0.925
aF1.0
aF1.0
aF1.0
aF1.0
aF1.0
aF0.6
aF0.575
aF0.575
aF0.575
aF0.6
aF0.6
aF0.875
aF0.975
aF1.0
aF1.0
aF1.0
aF0.475
aF0.425
aF0.425
aF0.425
aF0.425
aF0.475
aF0.9
aF0.975
aF0.975
aF1.0
aF1.0
aF0.9
aF0.9
aF0.9
aF0.9
aF0.9
aF0.9
aF1.0
aF1.0
aF1.0
aF1.0
aF1.0
aF0.575
aF0.575
aF0.575
aF0.6
aF0.6
aF0.6
aF0.875
aF0.975
aF1.0
aF1.0
aF1.0
aF0.425
aF0.425
aF0.425
aF0.425
aF0.425
aF0.5
aF0.9
aF0.975
aF0.975
aF1.0
aF1.0
aF0.9
aF0.9
aF0.9
aF0.9
aF0.9
aF0.925
aF1.0
aF1.0
aF1.0
aF1.0
aF1.0
aF0.575
aF0.575
aF0.575
aF0.6
aF0.6
aF0.675
aF0.95
aF1.0
aF1.0
aF1.0
aF1.0
aF0.425
aF0.425
aF0.425
aF0.425
aF0.425
aF0.6
aF0.975
aF0.975
aF0.975
aF1.0
aF1.0
aF0.9
aF0.9
aF0.9
aF0.9
aF0.9
aF0.95
aF1.0
aF1.0
aF1.0
aF1.0
aF1.0
aF0.575
aF0.6
aF0.6
aF0.6
aF0.6
aF0.85
aF0.95
aF1.0
aF1.0
aF1.0
aF1.0
aF0.425
aF0.425
aF0.425
aF0.425
aF0.475
aF0.85
aF0.975
aF0.975
aF1.0
aF1.0
aF1.0
aF0.9
aF0.9
aF0.9
aF0.9
aF0.9
aF1.0
aF1.0
aF1.0
aF1.0
aF1.0
aF1.0
aF0.6
aF0.6
aF0.6
aF0.6
aF0.825
aF0.95
aF1.0
aF1.0
aF1.0
aF1.0
aF1.0
aF0.425
aF0.425
aF0.425
aF0.475
aF0.8
aF0.975
aF0.975
aF0.975
aF1.0
aF1.0
aF1.0
aF0.9
aF0.9
aF0.9
aF0.9
aF1.0
aF1.0
aF1.0
aF1.0
aF1.0
aF1.0
aF1.0
aF0.6
aF0.6
aF0.675
aF0.85
aF0.95
aF0.975
aF1.0
aF1.0
aF1.0
aF1.0
aF1.0
aF0.475
aF0.5
aF0.6
aF0.85
aF0.975
aF0.975
aF0.975
aF1.0
aF1.0
aF1.0
aF1.0
aF0.9
aF0.925
aF0.95
aF1.0
aF1.0
aF1.0
aF1.0
aF1.0
aF1.0
aF1.0
aF1.0
a.(lp0
F-51.20608763020073
aF-51.20608763020073
aF-52.667264791563895
aF-53.636274627664086
aF-59.65556047438036
aF-59.65556047438036
aF-59.65556047438036
aF-71.22406955586202
aF-71.22406955586202
aF-72.6752019405435
aF-73.63543197436239
aF-79.52522638906119
aF-79.52522638906119
aF-79.52522638906119
aF-74.18773060985276
aF-74.18773060985276
aF-75.62895018429494
aF-76.58057282293078
aF-82.34707798167574
aF-82.34707798167574
aF-82.34707798167574
aF-75.91649778601618
aF-75.91649778601618
aF-77.34792902647102
aF-78.29107841649714
aF-83.94006878444767
aF-83.94006878444767
aF-83.94006878444767
aF-77.13747925798933
aF-77.13747925798933
aF-78.55927310609547
aF-79.49411461322254
aF-85.03088332643792
aF-85.03088332643792
aF-85.03088332643792
aF-78.7287251520257
aF-78.7287251520257
aF-79.49202779227646
aF-80.4187110680227
aF-85.84817906780316
aF-85.84817906780316
aF-85.84817906780316
aF-79.49063713517917
aF-79.49063713517917
aF-80.24849539982651
aF-81.16715116593369
aF-86.49391511779355
aF-86.49391511779355
aF-86.49391511779355
aF-80.13080988765864
aF-80.13080988765864
aF-80.88329001719472
aF-81.79405816318685
aF-87.0223511315987
aF-87.0223511315987
aF-87.0223511315987
aF-80.68186296040861
aF-80.68186296040861
aF-81.4290522420916
aF-82.33206568368203
aF-87.46589295209633
aF-87.46589295209633
aF-87.46589295209633
aF-81.16487896986307
aF-81.16487896986307
aF-81.90684771062791
aF-82.80223871952636
aF-87.84531640835966
aF-87.84531640835966
aF-87.84531640835966
aF-81.59424092459906
aF-81.59424092459906
aF-82.33106274472647
aF-83.21896082792863
aF-88.17476930151075
aF-88.17476930151075
aF-88.17476930151075
aF-81.98021727443603
aF-81.98021727443603
aF-82.7119673263856
aF-83.59250317490233
aF-88.4642901856622
aF-88.4642901856622
aF-88.4642901856622
aF-82.3303942474074
aF-82.3303942474074
aF-83.05713400520577
aF-83.93041750538836
aF-88.72130997544946
aF-88.72130997544946
aF-88.72130997544946
aF-82.65053031095098
aF-82.65053031095098
aF-83.37233671335598
aF-84.23848767235447
aF-88.95134070557562
aF-88.95134070557562
aF-88.95134070557562
aF-82.94510044342317
aF-82.94510044342317
aF-83.66203422574989
aF-84.52117042058373
aF-89.15874335220053
aF-89.15874335220053
aF-89.15874335220053
aF-83.21764869668132
aF-83.21764869668132
aF-83.92977341753736
aF-84.78203125797032
aF-89.34689235279262
aF-89.34689235279262
aF-89.34689235279262
aF-83.47105119872768
aF-83.47105119872768
aF-84.17843421575682
aF-85.02389016658158
aF-89.51849636667603
aF-89.51849636667603
aF-89.51849636667603
aF-83.70763745491632
aF-83.70763745491632
aF-84.41034767701575
aF-85.24911651049068
aF-89.67574660091569
aF-89.67574660091569
aF-89.67574660091569
aF-83.92934407869865
aF-83.92934407869865
aF-84.62743964359731
aF-85.45963527235303
aF-89.82048931169258
aF-89.82048931169258
aF-89.82048931169258
aF-84.13780763937831
aF-84.13780763937831
aF-84.83134238502186
aF-85.65707407910239
aF-89.95425003511508
aF-89.95425003511508
aF-89.95425003511508
aF-84.33438778021768
aF-84.33438778021768
aF-85.02342067396135
aF-85.84278973198835
aF-90.07825716532761
aF-90.07825716532761
aF-90.07825716532761
aF-84.52027262115911
aF-84.52027262115911
aF-85.20486592356194
aF-86.01794284403067
aF-90.19359070279599
aF-90.19359070279599
aF-90.19359070279599
aF-84.69645315790386
aF-84.69645315790386
aF-85.37666402264352
aF-86.18356142437307
aF-90.30117425290979
aF-90.30117425290979
aF-90.30117425290979
aF-84.86381595247317
aF-84.86381595247317
aF-85.53969494596637
aF-86.34051757174525
aF-90.40178533104822
aF-90.40178533104822
aF-90.40178533104822
aF-85.02311691166219
aF-85.02311691166219
aF-85.6947346131936
aF-86.48955858992454
aF-90.49611289295245
aF-90.49611289295245
aF-90.49611289295245
aF-85.1750230088033
aF-85.1750230088033
aF-85.84242289964209
aF-86.63134180582048
aF-90.58474157375858
aF-90.58474157375858
aF-90.58474157375858
aF-85.32013254115
aF-85.32013254115
aF-85.98335860438836
aF-86.76646816915353
aF-90.66819559985647
aF-90.66819559985647
aF-90.66819559985647
aF-85.45896358537266
aF-85.45896358537266
aF-86.11808181784912
aF-86.8954460602641
aF-90.746925506277
aF-90.746925506277
aF-90.746925506277
aF-85.59197931207862
aF-85.59197931207862
aF-86.2470226178266
aF-87.0187426629802
aF-90.82133341251026
aF-90.82133341251026
aF-90.82133341251026
aF-85.71959205247435
aF-85.71959205247435
aF-86.37063487626698
aF-87.1367828574313
aF-90.89177700091084
aF-90.89177700091084
aF-90.89177700091084
aF-85.84218947700792
aF-85.84218947700792
aF-86.48926831005765
aF-87.24992873325535
aF-90.95857040681948
aF-90.95857040681948
aF-90.95857040681948
aF-85.96008331001121
aF-85.96008331001121
aF-86.60326002538443
aF-87.35850654991994
aF-91.02200324692569
aF-91.02200324692569
aF-91.02200324692569
aF-86.07361073766126
aF-86.07361073766126
aF-86.71290213628681
aF-87.4628166887902
aF-91.0823235479021
aF-91.0823235479021
aF-91.0823235479021
aF-86.18303841159354
aF-86.18303841159354
aF-86.81851067349434
aF-87.56317192642805
aF-91.13976533672799
aF-91.13976533672799
aF-91.13976533672799
aF-86.28860069304864
aF-86.28860069304864
aF-86.92029278861453
aF-87.65976513563712
aF-91.1945335227314
aF-91.1945335227314
aF-91.1945335227314
aF-86.39054598452304
aF-86.39054598452304
aF-87.01850220497508
aF-87.75285695469603
aF-91.24681131630959
aF-91.24681131630959
aF-91.24681131630959
aF-86.48907480092478
aF-86.48907480092478
aF-87.11335016887581
aF-87.84267288124651
aF-91.29676873983028
aF-91.29676873983028
aF-91.29676873983028
aF-86.5843688789368
aF-86.5843688789368
aF-87.20499597844122
aF-87.92934114468459
aF-91.34456620837747
aF-91.34456620837747
aF-91.34456620837747
aF-86.6766457099588
aF-86.6766457099588
aF-87.29365410587236
aF-88.01309929907055
aF-91.39033470241536
aF-91.39033470241536
aF-91.39033470241536
aF-86.76601440402196
aF-86.76601440402196
aF-87.37947789963468
aF-88.09407803282318
aF-91.43420933832394
aF-91.43420933832394
aF-91.43420933832394
aF-86.85267162122322
aF-86.85267162122322
aF-87.46262298135905
aF-88.17245920166977
aF-91.47630423911508
aF-91.47630423911508
aF-91.47630423911508
aF-86.93673638205195
aF-86.93673638205195
aF-87.5431956899728
aF-88.24833324031354
aF-91.5167291632421
aF-91.5167291632421
aF-91.5167291632421
aF-87.01834919317612
aF-87.01834919317612
aF-87.62137192755304
aF-88.32183661104436
aF-91.55558240269825
aF-91.55558240269825
aF-91.55558240269825
aF-87.09760539047765
aF-87.09760539047765
aF-87.69722275479133
aF-88.39312426014436
aF-91.59295593972944
aF-91.59295593972944
aF-91.59295593972944
aF-87.17463984285277
aF-87.17463984285277
aF-87.77091129610413
aF-88.46224757310274
aF-91.62892834720991
aF-91.62892834720991
aF-91.62892834720991
aF-87.24955985867925
aF-87.24955985867925
aF-87.84248789459548
aF-88.52936138075182
aF-91.6635892795475
aF-91.6635892795475
aF-91.6635892795475
aF-87.32244127724634
aF-87.32244127724634
aF-87.91209413451702
aF-88.59454248513663
aF-91.69700101621171
aF-91.69700101621171
aF-91.69700101621171
aF-87.39339611949188
aF-87.39339611949188
aF-87.97977832370972
aF-88.65791007067915
aF-91.72923586679042
aF-91.72923586679042
aF-91.72923586679042
aF-87.4624777064554
aF-87.4624777064554
aF-88.04565319167465
aF-88.71946624268018
aF-91.76035672919434
aF-91.76035672919434
aF-91.76035672919434
aF-87.52982250415724
aF-87.52982250415724
aF-88.10981574592518
aF-88.77938200683543
aF-91.79041648961561
aF-91.79041648961561
aF-91.79041648961561
aF-87.59545607996982
aF-87.59545607996982
aF-88.17228813203494
aF-88.8376761141764
aF-91.81947066589007
aF-91.81947066589007
aF-91.81947066589007
aF-87.65946109833581
aF-87.65946109833581
aF-88.23318501720689
aF-88.8944395724462
aF-91.84756401788772
aF-91.84756401788772
aF-91.84756401788772
aF-87.72190395924784
aF-87.72190395924784
aF-88.29257305807403
aF-88.94970359595311
aF-91.87475678148674
aF-91.87475678148674
aF-91.87475678148674
aF-87.78285902545198
aF-87.78285902545198
aF-88.35046686317811
aF-89.00357335426321
aF-91.90108463045674
aF-91.90108463045674
aF-91.90108463045674
aF-87.84238219147537
aF-87.84238219147537
aF-88.40697554442896
aF-89.05609238995845
aF-91.92659162561581
aF-91.92659162561581
aF-91.92659162561581
aF-87.9005090797805
aF-87.9005090797805
aF-88.46212565646864
aF-89.1073090695385
aF-91.9513099339074
aF-91.9513099339074
aF-91.9513099339074
aF-87.95730754269043
aF-87.95730754269043
aF-88.51597882546812
aF-89.15727655807665
aF-91.9752799187788
aF-91.9752799187788
aF-91.9752799187788
aF-88.01282445871664
aF-88.01282445871664
aF-88.56857117384763
aF-89.20601660980145
aF-91.99853651661894
aF-91.99853651661894
aF-91.99853651661894
aF-88.06713963193452
aF-88.06713963193452
aF-88.61997463543568
aF-89.25362724501804
aF-92.02110900267573
aF-92.02110900267573
aF-92.02110900267573
aF-88.12022664054929
aF-88.12022664054929
aF-88.67023483762165
aF-89.30010185652756
aF-92.04302772235535
aF-92.04302772235535
aF-92.04302772235535
aF-88.17220259974437
aF-88.17220259974437
aF-88.71936922579224
aF-89.34554739455977
aF-92.06431706886056
aF-92.06431706886056
aF-92.06431706886056
aF-88.22304816794521
aF-88.22304816794521
aF-88.7674306374108
aF-89.38992599150359
aF-92.08501633746803
aF-92.08501633746803
aF-92.08501633746803
aF-88.27283256521646
aF-88.27283256521646
aF-88.81444298183901
aF-89.433314081599
aF-92.10513771262838
aF-92.10513771262838
aF-92.10513771262838
aF-88.32160053813317
aF-88.32160053813317
aF-88.86043284991607
aF-89.47575411857939
aF-92.12471517315262
aF-92.12471517315262
aF-92.12471517315262
aF-88.36937068307861
aF-88.36937068307861
aF-88.90549701946898
aF-89.517252649194
aF-92.14376225760672
aF-92.14376225760672
aF-92.14376225760672
aF-88.41616396880546
aF-88.41616396880546
aF-88.94960129708919
aF-89.55785690418904
aF-92.16230015398084
aF-92.16230015398084
aF-92.16230015398084
aF-88.46203422123901
aF-88.46203422123901
aF-88.99281469392344
aF-89.59761702150215
aF-92.18035783512519
aF-92.18035783512519
aF-92.18035783512519
aF-88.50700812056799
aF-88.50700812056799
aF-89.03514065390219
aF-89.63650611968163
aF-92.19794336778351
aF-92.19794336778351
aF-92.19794336778351
aF-88.55108359773446
aF-88.55108359773446
aF-89.07661899340437
aF-89.67461820739993
aF-92.21507962189634
aF-92.21507962189634
aF-92.21507962189634
aF-88.59435395517303
aF-88.59435395517303
aF-89.11729212269547
aF-89.7119295851819
aF-92.23179002123089
aF-92.23179002123089
aF-92.23179002123089
aF-88.63679040755119
aF-88.63679040755119
aF-89.15716925112531
aF-89.7484985312333
aF-92.24808394849919
aF-92.24808394849919
aF-92.24808394849919
aF-88.6783960743135
aF-88.6783960743135
aF-89.19626083298692
aF-89.78434475386608
aF-92.26397108811031
aF-92.26397108811031
aF-92.26397108811031
aF-88.7192722110715
aF-88.7192722110715
aF-89.23461498263742
aF-89.81944766325283
aF-92.27948344060584
aF-92.27948344060584
aF-92.27948344060584
aF-88.75939425487769
aF-88.75939425487769
aF-89.27224560115374
aF-89.85391267256443
aF-92.2946167695617
aF-92.2946167695617
aF-92.2946167695617
aF-88.79880341436419
aF-88.79880341436419
aF-89.30920485929356
aF-89.88767989680633
aF-92.30939647277248
aF-92.30939647277248
aF-92.30939647277248
aF-88.83747672884533
aF-88.83747672884533
aF-89.34543533350592
aF-89.92077344896921
aF-92.32382616548138
aF-92.32382616548138
aF-92.32382616548138
aF-88.8754917356114
aF-88.8754917356114
aF-89.38102898338079
aF-89.95330470231212
aF-92.33792450165446
aF-92.33792450165446
aF-92.33792450165446
aF-88.91282796922538
aF-88.91282796922538
aF-89.41600550319096
aF-89.98517246936855
aF-92.35169555304469
aF-92.35169555304469
aF-92.35169555304469
aF-88.94953309918526
aF-88.94953309918526
aF-89.45030923978555
aF-90.01647359331176
aF-92.36516599985916
aF-92.36516599985916
aF-92.36516599985916
aF-88.98558826552524
aF-88.98558826552524
aF-89.48403758833179
aF-90.04719404613513
aF-92.37832539220517
aF-92.37832539220517
aF-92.37832539220517
aF-89.02104389144725
aF-89.02104389144725
aF-89.51717492867613
aF-90.07735961008656
aF-92.3912008958756
aF-92.3912008958756
aF-92.3912008958756
aF-89.05591766505131
aF-89.05591766505131
aF-89.54974477837366
aF-90.10698383910602
aF-92.40378986109776
aF-92.40378986109776
aF-92.40378986109776
aF-89.09019312468482
aF-89.09019312468482
aF-89.58173237362456
aF-90.13608103667173
aF-92.41611240469076
aF-92.41611240469076
aF-92.41611240469076
aF-89.12392476719162
aF-89.12392476719162
aF-89.61320240884149
aF-90.16467075929647
aF-92.42817374589922
aF-92.42817374589922
aF-92.42817374589922
aF-89.1570977146307
aF-89.1570977146307
aF-89.64414184013982
aF-90.19275525478092
aF-92.43997160603202
aF-92.43997160603202
aF-92.43997160603202
aF-89.18973309759104
aF-89.18973309759104
aF-89.67453761908068
aF-90.22035999259246
aF-92.45153429062618
aF-92.45153429062618
aF-92.45153429062618
aF-89.22185310207574
aF-89.22185310207574
aF-89.70445785031697
aF-90.2474930017514
aF-92.46285217432977
aF-92.46285217432977
aF-92.46285217432977
aF-89.25348096004606
aF-89.25348096004606
aF-89.73389116870857
aF-90.27416741861416
aF-92.47393861215308
aF-92.47393861215308
aF-92.47393861215308
aF-89.28460410586598
aF-89.28460410586598
aF-89.76286732960395
aF-90.30039231562685
aF-92.48479944833214
aF-92.48479944833214
aF-92.48479944833214
aF-89.31520995636406
aF-89.31520995636406
aF-89.79133439577248
aF-90.32618191925322
aF-92.49544063067614
aF-92.49544063067614
aF-92.49544063067614
aF-89.34539798046384
aF-89.34539798046384
aF-89.81940600251141
aF-90.35155103377846
aF-92.50587594138122
aF-92.50587594138122
aF-92.50587594138122
aF-89.3750826815826
aF-89.3750826815826
aF-89.84698937000078
aF-90.37650556135836
aF-92.51610383064101
aF-92.51610383064101
aF-92.51610383064101
aF-89.40436582098732
aF-89.40436582098732
aF-89.8741583608585
aF-90.4010565151563
aF-92.52613054047772
aF-92.52613054047772
aF-92.52613054047772
aF-89.4331616173259
aF-89.4331616173259
aF-89.90094650184534
aF-90.4252105706351
aF-92.5359624062284
aF-92.5359624062284
aF-92.5359624062284
aF-89.46157409688385
aF-89.46157409688385
aF-89.9272602345558
aF-90.44898919264627
aF-92.54561365854838
aF-92.54561365854838
aF-92.54561365854838
aF-89.48955582077235
aF-89.48955582077235
aF-89.95321877316906
aF-90.47239028710834
aF-92.55507521995818
aF-92.55507521995818
aF-92.55507521995818
aF-89.51713606893875
aF-89.51713606893875
aF-89.97877153774839
aF-90.49542648802492
aF-92.5643693163893
aF-92.5643693163893
aF-92.5643693163893
aF-89.54430599674464
aF-89.54430599674464
aF-90.00396257288298
aF-90.51810596909108
aF-92.5734791170328
aF-92.5734791170328
aF-92.5734791170328
aF-89.5710567574897
aF-89.5710567574897
aF-90.02876718701414
aF-90.54043723002563
aF-92.5824270310861
aF-92.5824270310861
aF-92.5824270310861
aF-89.59749826392455
aF-89.59749826392455
aF-90.05321305799286
aF-90.5624340364848
aF-92.59121990364065
aF-92.59121990364065
aF-92.59121990364065
aF-89.62350435585432
aF-89.62350435585432
aF-90.07730213749896
aF-90.58409566745158
aF-92.59984094881858
aF-92.59984094881858
aF-92.59984094881858
aF-89.64918637633883
aF-89.64918637633883
aF-90.10104547245327
aF-90.60543649758009
aF-92.60832077819816
aF-92.60832077819816
aF-92.60832077819816
aF-89.67449732548181
aF-89.67449732548181
aF-90.12444556857673
aF-90.62646127745356
aF-92.61664266331339
aF-92.61664266331339
aF-92.61664266331339
aF-89.69947031702952
aF-89.69947031702952
aF-90.1475186129581
aF-90.64717496896097
aF-92.62482155925817
aF-92.62482155925817
aF-92.62482155925817
aF-89.72409863779251
aF-89.72409863779251
aF-90.17026772815856
aF-90.66758780820919
aF-92.63284866394389
aF-92.63284866394389
aF-92.63284866394389
aF-89.74837557536208
aF-89.74837557536208
aF-90.19270077462286
aF-90.6877052451192
aF-92.64074703788268
aF-92.64074703788268
aF-92.64074703788268
aF-89.77237684559765
aF-89.77237684559765
aF-90.21482133969238
aF-90.70753293416581
aF-92.64850795898269
aF-92.64850795898269
aF-92.64850795898269
aF-89.7960142267182
aF-89.7960142267182
aF-90.2366423783865
aF-90.72707673240154
aF-92.65613866920674
aF-92.65613866920674
aF-92.65613866920674
aF-89.81936434216964
aF-89.81936434216964
aF-90.25816339569477
aF-90.74634785464893
aF-92.6636384567787
aF-92.6636384567787
aF-92.6636384567787
aF-89.84237995890923
aF-89.84237995890923
aF-90.27939326044574
aF-90.76534744479858
aF-92.67101465239978
aF-92.67101465239978
aF-92.67101465239978
aF-89.86509716602296
aF-89.86509716602296
aF-90.3003411222629
aF-90.78408715654716
aF-92.67827464998362
aF-92.67827464998362
aF-92.67827464998362
aF-89.88755293672041
aF-89.88755293672041
aF-90.32100705619796
aF-90.80256325285957
aF-92.68540978517295
aF-92.68540978517295
aF-92.68540978517295
aF-89.90970004315096
aF-89.90970004315096
aF-90.34140533005473
aF-90.8207877505128
aF-92.69242749457834
aF-92.69242749457834
aF-92.69242749457834
aF-89.93157589705396
aF-89.93157589705396
aF-90.36153169260304
aF-90.83876767562407
aF-92.69933527491366
aF-92.69933527491366
aF-92.69933527491366
aF-89.9531758092351
aF-89.9531758092351
aF-90.38139612674806
aF-90.85649966164888
aF-92.70613258286326
aF-92.70613258286326
aF-92.70613258286326
aF-89.97449509344713
aF-89.97449509344713
aF-90.40100412134058
aF-90.87399628889031
aF-92.71281888181068
aF-92.71281888181068
aF-92.71281888181068
aF-89.99557245394939
aF-89.99557245394939
aF-90.4203661300224
aF-90.89125974211738
aF-92.7194017651138
aF-92.7194017651138
aF-92.7194017651138
aF-90.01636896777936
aF-90.01636896777936
aF-90.43947364794647
aF-90.90829765612382
aF-92.72588074628746
aF-92.72588074628746
aF-92.72588074628746
aF-90.03691513110196
aF-90.03691513110196
aF-90.45834705332308
aF-90.9251124710496
aF-92.73226349206257
aF-92.73226349206257
aF-92.73226349206257
aF-90.05721130294151
aF-90.05721130294151
aF-90.47697806820779
aF-90.94170132698237
aF-92.73854140434813
aF-92.73854140434813
aF-92.73854140434813
aF-54.885511507951435
aF-54.885511507951435
aF-56.689332466520355
aF-56.689332466520355
aF-56.81642363229478
aF-56.81642363229478
aF-57.0203168987762
aF-57.0203168987762
aF-57.29058105329027
aF-57.29058105329027
aF-57.61499756936388
aF-57.61499756936388
aF-57.981196846806625
aF-57.981196846806625
aF-58.37755308858241
aF-58.37755308858241
aF-58.79399748714029
aF-58.79399748714029
aF-59.222216169910155
aF-59.222216169910155
aF-59.65556047438036
aF-56.64612314255933
aF-56.64612314255933
aF-56.689332466520355
aF-56.689332466520355
aF-56.81642363229478
aF-56.81642363229478
aF-57.0203168987762
aF-57.0203168987762
aF-57.29058105329027
aF-57.29058105329027
aF-57.61499756936388
aF-57.61499756936388
aF-57.981196846806625
aF-57.981196846806625
aF-58.37755308858241
aF-58.37755308858241
aF-58.79399748714029
aF-58.79399748714029
aF-59.222216169910155
aF-59.222216169910155
aF-59.65556047438036
aF-59.65556047438036
aF-59.65556047438036
aF-59.65556047438036
aF-59.65556047438036
aF-59.65556047438036
aF-59.65556047438036
aF-59.65556047438036
aF-59.65556047438036
aF-59.65556047438036
aF-59.65556047438036
aF-59.65556047438036
aF-59.65556047438036
aF-59.65556047438036
aF-59.65556047438036
aF-59.65556047438036
aF-59.65556047438036
aF-59.65556047438036
aF-59.65556047438036
aF-59.65556047438036
aF-59.65556047438036
aF-59.65556047438036
aF-54.885511507951435
aF-54.885511507951435
aF-56.689332466520355
aF-56.689332466520355
aF-56.81642363229478
aF-56.81642363229478
aF-57.0203168987762
aF-57.0203168987762
aF-57.29058105329027
aF-57.29058105329027
aF-57.61499756936388
aF-57.61499756936388
aF-57.981196846806625
aF-57.981196846806625
aF-58.37755308858241
aF-58.37755308858241
aF-58.79399748714029
aF-58.79399748714029
aF-59.222216169910155
aF-59.222216169910155
aF-59.65556047438036
aF-56.64612314255933
aF-56.64612314255933
aF-56.689332466520355
aF-56.689332466520355
aF-56.81642363229478
aF-56.81642363229478
aF-57.0203168987762
aF-57.0203168987762
aF-57.29058105329027
aF-57.29058105329027
aF-57.61499756936388
aF-57.61499756936388
aF-57.981196846806625
aF-57.981196846806625
aF-58.37755308858241
aF-58.37755308858241
aF-58.79399748714029
aF-58.79399748714029
aF-59.222216169910155
aF-59.222216169910155
aF-59.65556047438036
aF-59.65556047438036
aF-59.65556047438036
aF-59.65556047438036
aF-59.65556047438036
aF-59.65556047438036
aF-59.65556047438036
aF-59.65556047438036
aF-59.65556047438036
aF-59.65556047438036
aF-59.65556047438036
aF-59.65556047438036
aF-59.65556047438036
aF-59.65556047438036
aF-59.65556047438036
aF-59.65556047438036
aF-59.65556047438036
aF-59.65556047438036
aF-59.65556047438036
aF-59.65556047438036
aF-59.65556047438036
aF-59.65556047438036
aF-55.731147883255986
aF-55.731147883255986
aF-55.78442137108958
aF-55.78442137108958
aF-55.940460868697244
aF-55.940460868697244
aF-56.18865055963524
aF-56.18865055963524
aF-56.51387539504257
aF-56.51387539504257
aF-56.899144879379975
aF-56.899144879379975
aF-57.327836706702044
aF-57.327836706702044
aF-57.78530989731105
aF-57.78530989731105
aF-58.259401922749745
aF-58.259401922749745
aF-58.740732823460114
aF-58.740732823460114
aF-59.222216169910155
aF-55.731147883255986
aF-55.731147883255986
aF-55.78442137108958
aF-55.78442137108958
aF-55.940460868697244
aF-55.940460868697244
aF-56.18865055963524
aF-56.18865055963524
aF-56.51387539504257
aF-56.51387539504257
aF-56.899144879379975
aF-56.899144879379975
aF-57.327836706702044
aF-57.327836706702044
aF-57.78530989731105
aF-57.78530989731105
aF-58.259401922749745
aF-58.259401922749745
aF-58.740732823460114
aF-58.740732823460114
aF-59.222216169910155
aF-58.740732823460114
aF-58.740732823460114
aF-58.79399748714029
aF-58.79399748714029
aF-58.95001050700366
aF-58.95001050700366
aF-59.198138020230104
aF-59.198138020230104
aF-59.52331913888259
aF-59.52331913888259
aF-59.65556047438036
aF-59.65556047438036
aF-59.65556047438036
aF-59.65556047438036
aF-59.65556047438036
aF-59.65556047438036
aF-59.65556047438036
aF-59.65556047438036
aF-59.65556047438036
aF-59.65556047438036
aF-59.65556047438036
aF-55.731147883255986
aF-55.731147883255986
aF-55.78442137108958
aF-55.78442137108958
aF-55.940460868697244
aF-55.940460868697244
aF-56.18865055963524
aF-56.18865055963524
aF-56.51387539504257
aF-56.51387539504257
aF-56.899144879379975
aF-56.899144879379975
aF-57.327836706702044
aF-57.327836706702044
aF-57.78530989731105
aF-57.78530989731105
aF-58.259401922749745
aF-58.259401922749745
aF-58.740732823460114
aF-58.740732823460114
aF-59.222216169910155
aF-55.731147883255986
aF-55.731147883255986
aF-55.78442137108958
aF-55.78442137108958
aF-55.940460868697244
aF-55.940460868697244
aF-56.18865055963524
aF-56.18865055963524
aF-56.51387539504257
aF-56.51387539504257
aF-56.899144879379975
aF-56.899144879379975
aF-57.327836706702044
aF-57.327836706702044
aF-57.78530989731105
aF-57.78530989731105
aF-58.259401922749745
aF-58.259401922749745
aF-58.740732823460114
aF-58.740732823460114
aF-59.222216169910155
aF-58.740732823460114
aF-58.740732823460114
aF-58.79399748714029
aF-58.79399748714029
aF-58.95001050700366
aF-58.95001050700366
aF-59.198138020230104
aF-59.198138020230104
aF-59.52331913888259
aF-59.52331913888259
aF-59.65556047438036
aF-59.65556047438036
aF-59.65556047438036
aF-59.65556047438036
aF-59.65556047438036
aF-59.65556047438036
aF-59.65556047438036
aF-59.65556047438036
aF-59.65556047438036
aF-59.65556047438036
aF-59.65556047438036
aF-54.70825112605102
aF-54.70825112605102
aF-54.77557070683272
aF-54.77557070683272
aF-54.97149717406017
aF-54.97149717406017
aF-55.279591904930186
aF-55.279591904930186
aF-55.677203583545435
aF-55.677203583545435
aF-56.14013215265363
aF-56.14013215265363
aF-56.64612314255933
aF-56.64612314255933
aF-57.176793018975985
aF-57.176793018975985
aF-57.71797326205701
aF-57.71797326205701
aF-58.259401922749745
aF-58.259401922749745
aF-58.79399748714029
aF-54.70825112605102
aF-54.70825112605102
aF-54.77557070683272
aF-54.77557070683272
aF-54.97149717406017
aF-54.97149717406017
aF-55.279591904930186
aF-55.279591904930186
aF-55.677203583545435
aF-55.677203583545435
aF-56.14013215265363
aF-56.14013215265363
aF-56.64612314255933
aF-56.64612314255933
aF-57.176793018975985
aF-57.176793018975985
aF-57.71797326205701
aF-57.71797326205701
aF-58.259401922749745
aF-58.259401922749745
aF-58.79399748714029
aF-57.71797326205701
aF-57.71797326205701
aF-57.78530989731105
aF-57.78530989731105
aF-57.981196846806625
aF-57.981196846806625
aF-58.28926209374507
aF-58.28926209374507
aF-58.68679734941665
aF-58.68679734941665
aF-59.149628638922486
aF-59.149628638922486
aF-59.65556047438036
aF-59.65556047438036
aF-59.65556047438036
aF-59.65556047438036
aF-59.65556047438036
aF-59.65556047438036
aF-59.65556047438036
aF-59.65556047438036
aF-59.65556047438036
aF-54.70825112605102
aF-54.70825112605102
aF-54.77557070683272
aF-54.77557070683272
aF-54.97149717406017
aF-54.97149717406017
aF-55.279591904930186
aF-55.279591904930186
aF-55.677203583545435
aF-55.677203583545435
aF-56.14013215265363
aF-56.14013215265363
aF-56.64612314255933
aF-56.64612314255933
aF-57.176793018975985
aF-57.176793018975985
aF-57.71797326205701
aF-57.71797326205701
aF-58.259401922749745
aF-58.259401922749745
aF-58.79399748714029
aF-54.70825112605102
aF-54.70825112605102
aF-54.77557070683272
aF-54.77557070683272
aF-54.97149717406017
aF-54.97149717406017
aF-55.279591904930186
aF-55.279591904930186
aF-55.677203583545435
aF-55.677203583545435
aF-56.14013215265363
aF-56.14013215265363
aF-56.64612314255933
aF-56.64612314255933
aF-57.176793018975985
aF-57.176793018975985
aF-57.71797326205701
aF-57.71797326205701
aF-58.259401922749745
aF-58.259401922749745
aF-58.79399748714029
aF-57.71797326205701
aF-57.71797326205701
aF-57.78530989731105
aF-57.78530989731105
aF-57.981196846806625
aF-57.981196846806625
aF-58.28926209374507
aF-58.28926209374507
aF-58.68679734941665
aF-58.68679734941665
aF-59.149628638922486
aF-59.149628638922486
aF-59.65556047438036
aF-59.65556047438036
aF-59.65556047438036
aF-59.65556047438036
aF-59.65556047438036
aF-59.65556047438036
aF-59.65556047438036
aF-59.65556047438036
aF-59.65556047438036
aF-53.548539196963574
aF-53.548539196963574
aF-53.636274627664086
aF-53.636274627664086
aF-53.88930217948655
aF-53.88930217948655
aF-54.2807814835092
aF-54.2807814835092
aF-54.77557070683272
aF-54.77557070683272
aF-55.33868190552571
aF-55.33868190552571
aF-55.940460868697244
aF-55.940460868697244
aF-56.55841640172221
aF-56.55841640172221
aF-57.176793018975985
aF-57.176793018975985
aF-57.78530989731105
aF-57.78530989731105
aF-58.37755308858241
aF-53.548539196963574
aF-53.548539196963574
aF-53.636274627664086
aF-53.636274627664086
aF-53.88930217948655
aF-53.88930217948655
aF-54.2807814835092
aF-54.2807814835092
aF-54.77557070683272
aF-54.77557070683272
aF-55.33868190552571
aF-55.33868190552571
aF-55.940460868697244
aF-55.940460868697244
aF-56.55841640172221
aF-56.55841640172221
aF-57.176793018975985
aF-57.176793018975985
aF-57.78530989731105
aF-57.78530989731105
aF-58.37755308858241
aF-56.55841640172221
aF-56.55841640172221
aF-56.64612314255933
aF-56.64612314255933
aF-56.899144879379975
aF-56.899144879379975
aF-57.29058105329027
aF-57.29058105329027
aF-57.78530989731105
aF-57.78530989731105
aF-58.34832862254786
aF-58.34832862254786
aF-58.95001050700366
aF-58.95001050700366
aF-59.567831662023885
aF-59.567831662023885
aF-59.65556047438036
aF-59.65556047438036
aF-59.65556047438036
aF-59.65556047438036
aF-59.65556047438036
aF-53.548539196963574
aF-53.548539196963574
aF-53.636274627664086
aF-53.636274627664086
aF-53.88930217948655
aF-53.88930217948655
aF-54.2807814835092
aF-54.2807814835092
aF-54.77557070683272
aF-54.77557070683272
aF-55.33868190552571
aF-55.33868190552571
aF-55.940460868697244
aF-55.940460868697244
aF-56.55841640172221
aF-56.55841640172221
aF-57.176793018975985
aF-57.176793018975985
aF-57.78530989731105
aF-57.78530989731105
aF-58.37755308858241
aF-53.548539196963574
aF-53.548539196963574
aF-53.636274627664086
aF-53.636274627664086
aF-53.88930217948655
aF-53.88930217948655
aF-54.2807814835092
aF-54.2807814835092
aF-54.77557070683272
aF-54.77557070683272
aF-55.33868190552571
aF-55.33868190552571
aF-55.940460868697244
aF-55.940460868697244
aF-56.55841640172221
aF-56.55841640172221
aF-57.176793018975985
aF-57.176793018975985
aF-57.78530989731105
aF-57.78530989731105
aF-58.37755308858241
aF-56.55841640172221
aF-56.55841640172221
aF-56.64612314255933
aF-56.64612314255933
aF-56.899144879379975
aF-56.899144879379975
aF-57.29058105329027
aF-57.29058105329027
aF-57.78530989731105
aF-57.78530989731105
aF-58.34832862254786
aF-58.34832862254786
aF-58.95001050700366
aF-58.95001050700366
aF-59.567831662023885
aF-59.567831662023885
aF-59.65556047438036
aF-59.65556047438036
aF-59.65556047438036
aF-59.65556047438036
aF-59.65556047438036
aF-52.209723596191076
aF-52.209723596191076
aF-52.32870860554457
aF-52.32870860554457
aF-52.667264791563895
aF-52.667264791563895
aF-53.178747878613244
aF-53.178747878613244
aF-53.80659317248818
aF-53.80659317248818
aF-54.4997722086753
aF-54.4997722086753
aF-55.219705723878896
aF-55.219705723878896
aF-55.940460868697244
aF-55.940460868697244
aF-56.64612314255933
aF-56.64612314255933
aF-57.327836706702044
aF-57.327836706702044
aF-57.981196846806625
aF-52.209723596191076
aF-52.209723596191076
aF-52.32870860554457
aF-52.32870860554457
aF-52.667264791563895
aF-52.667264791563895
aF-53.178747878613244
aF-53.178747878613244
aF-53.80659317248818
aF-53.80659317248818
aF-54.4997722086753
aF-54.4997722086753
aF-55.219705723878896
aF-55.219705723878896
aF-55.940460868697244
aF-55.940460868697244
aF-56.64612314255933
aF-56.64612314255933
aF-57.327836706702044
aF-57.327836706702044
aF-57.981196846806625
aF-55.219705723878896
aF-55.219705723878896
aF-55.33868190552571
aF-55.33868190552571
aF-55.677203583545435
aF-55.677203583545435
aF-56.18865055963524
aF-56.18865055963524
aF-56.81642363229478
aF-56.81642363229478
aF-57.5095336633614
aF-57.5095336633614
aF-58.229370092385075
aF-58.229370092385075
aF-58.95001050700366
aF-58.95001050700366
aF-59.65556047438036
aF-59.65556047438036
aF-59.65556047438036
aF-59.65556047438036
aF-59.65556047438036
aF-52.209723596191076
aF-52.209723596191076
aF-52.32870860554457
aF-52.32870860554457
aF-52.667264791563895
aF-52.667264791563895
aF-53.178747878613244
aF-53.178747878613244
aF-53.80659317248818
aF-53.80659317248818
aF-54.4997722086753
aF-54.4997722086753
aF-55.219705723878896
aF-55.219705723878896
aF-55.940460868697244
aF-55.940460868697244
aF-56.64612314255933
aF-56.64612314255933
aF-57.327836706702044
aF-57.327836706702044
aF-57.981196846806625
aF-52.209723596191076
aF-52.209723596191076
aF-52.32870860554457
aF-52.32870860554457
aF-52.667264791563895
aF-52.667264791563895
aF-53.178747878613244
aF-53.178747878613244
aF-53.80659317248818
aF-53.80659317248818
aF-54.4997722086753
aF-54.4997722086753
aF-55.219705723878896
aF-55.219705723878896
aF-55.940460868697244
aF-55.940460868697244
aF-56.64612314255933
aF-56.64612314255933
aF-57.327836706702044
aF-57.327836706702044
aF-57.981196846806625
aF-55.219705723878896
aF-55.219705723878896
aF-55.33868190552571
aF-55.33868190552571
aF-55.677203583545435
aF-55.677203583545435
aF-56.18865055963524
aF-56.18865055963524
aF-56.81642363229478
aF-56.81642363229478
aF-57.5095336633614
aF-57.5095336633614
aF-58.229370092385075
aF-58.229370092385075
aF-58.95001050700366
aF-58.95001050700366
aF-59.65556047438036
aF-59.65556047438036
aF-59.65556047438036
aF-59.65556047438036
aF-59.65556047438036
aF-50.6261953929573
aF-50.6261953929573
aF-50.79651754892113
aF-50.79651754892113
aF-51.270737561046786
aF-51.270737561046786
aF-51.961504212840445
aF-51.961504212840445
aF-52.774491606830594
aF-52.774491606830594
aF-53.636274627664086
aF-53.636274627664086
aF-54.4997722086753
aF-54.4997722086753
aF-55.33868190552571
aF-55.33868190552571
aF-56.14013215265363
aF-56.14013215265363
aF-56.899144879379975
aF-56.899144879379975
aF-57.61499756936388
aF-50.6261953929573
aF-50.6261953929573
aF-50.79651754892113
aF-50.79651754892113
aF-51.270737561046786
aF-51.270737561046786
aF-51.961504212840445
aF-51.961504212840445
aF-52.774491606830594
aF-52.774491606830594
aF-53.636274627664086
aF-53.636274627664086
aF-54.4997722086753
aF-54.4997722086753
aF-55.33868190552571
aF-55.33868190552571
aF-56.14013215265363
aF-56.14013215265363
aF-56.899144879379975
aF-56.899144879379975
aF-57.61499756936388
aF-53.636274627664086
aF-53.636274627664086
aF-53.80659317248818
aF-53.80659317248818
aF-54.2807814835092
aF-54.2807814835092
aF-54.97149717406017
aF-54.97149717406017
aF-55.78442137108958
aF-55.78442137108958
aF-56.64612314255933
aF-56.64612314255933
aF-57.5095336633614
aF-57.5095336633614
aF-58.34832862254786
aF-58.34832862254786
aF-59.149628638922486
aF-59.149628638922486
aF-59.65556047438036
aF-59.65556047438036
aF-59.65556047438036
aF-50.6261953929573
aF-50.6261953929573
aF-50.79651754892113
aF-50.79651754892113
aF-51.270737561046786
aF-51.270737561046786
aF-51.961504212840445
aF-51.961504212840445
aF-52.774491606830594
aF-52.774491606830594
aF-53.636274627664086
aF-53.636274627664086
aF-54.4997722086753
aF-54.4997722086753
aF-55.33868190552571
aF-55.33868190552571
aF-56.14013215265363
aF-56.14013215265363
aF-56.899144879379975
aF-56.899144879379975
aF-57.61499756936388
aF-50.6261953929573
aF-50.6261953929573
aF-50.79651754892113
aF-50.79651754892113
aF-51.270737561046786
aF-51.270737561046786
aF-51.961504212840445
aF-51.961504212840445
aF-52.774491606830594
aF-52.774491606830594
aF-53.636274627664086
aF-53.636274627664086
aF-54.4997722086753
aF-54.4997722086753
aF-55.33868190552571
aF-55.33868190552571
aF-56.14013215265363
aF-56.14013215265363
aF-56.899144879379975
aF-56.899144879379975
aF-57.61499756936388
aF-53.636274627664086
aF-53.636274627664086
aF-53.80659317248818
aF-53.80659317248818
aF-54.2807814835092
aF-54.2807814835092
aF-54.97149717406017
aF-54.97149717406017
aF-55.78442137108958
aF-55.78442137108958
aF-56.64612314255933
aF-56.64612314255933
aF-57.5095336633614
aF-57.5095336633614
aF-58.34832862254786
aF-58.34832862254786
aF-59.149628638922486
aF-59.149628638922486
aF-59.65556047438036
aF-59.65556047438036
aF-59.65556047438036
aF-48.6880814180561
aF-48.6880814180561
aF-48.95134070557561
aF-48.95134070557561
aF-49.65712536219131
aF-49.65712536219131
aF-50.6261953929573
aF-50.6261953929573
aF-51.698233687481085
aF-51.698233687481085
aF-52.774491606830594
aF-52.774491606830594
aF-53.80659317248818
aF-53.80659317248818
aF-54.77557070683272
aF-54.77557070683272
aF-55.677203583545435
aF-55.677203583545435
aF-56.51387539504257
aF-56.51387539504257
aF-57.29058105329027
aF-48.6880814180561
aF-48.6880814180561
aF-48.95134070557561
aF-48.95134070557561
aF-49.65712536219131
aF-49.65712536219131
aF-50.6261953929573
aF-50.6261953929573
aF-51.698233687481085
aF-51.698233687481085
aF-52.774491606830594
aF-52.774491606830594
aF-53.80659317248818
aF-53.80659317248818
aF-54.77557070683272
aF-54.77557070683272
aF-55.677203583545435
aF-55.677203583545435
aF-56.51387539504257
aF-56.51387539504257
aF-57.29058105329027
aF-51.698233687481085
aF-51.698233687481085
aF-51.961504212840445
aF-51.961504212840445
aF-52.667264791563895
aF-52.667264791563895
aF-53.636274627664086
aF-53.636274627664086
aF-54.70825112605102
aF-54.70825112605102
aF-55.78442137108958
aF-55.78442137108958
aF-56.81642363229478
aF-56.81642363229478
aF-57.78530989731105
aF-57.78530989731105
aF-58.68679734941665
aF-58.68679734941665
aF-59.52331913888259
aF-59.52331913888259
aF-59.65556047438036
aF-48.6880814180561
aF-48.6880814180561
aF-48.95134070557561
aF-48.95134070557561
aF-49.65712536219131
aF-49.65712536219131
aF-50.6261953929573
aF-50.6261953929573
aF-51.698233687481085
aF-51.698233687481085
aF-52.774491606830594
aF-52.774491606830594
aF-53.80659317248818
aF-53.80659317248818
aF-54.77557070683272
aF-54.77557070683272
aF-55.677203583545435
aF-55.677203583545435
aF-56.51387539504257
aF-56.51387539504257
aF-57.29058105329027
aF-48.6880814180561
aF-48.6880814180561
aF-48.95134070557561
aF-48.95134070557561
aF-49.65712536219131
aF-49.65712536219131
aF-50.6261953929573
aF-50.6261953929573
aF-51.698233687481085
aF-51.698233687481085
aF-52.774491606830594
aF-52.774491606830594
aF-53.80659317248818
aF-53.80659317248818
aF-54.77557070683272
aF-54.77557070683272
aF-55.677203583545435
aF-55.677203583545435
aF-56.51387539504257
aF-56.51387539504257
aF-57.29058105329027
aF-51.698233687481085
aF-51.698233687481085
aF-51.961504212840445
aF-51.961504212840445
aF-52.667264791563895
aF-52.667264791563895
aF-53.636274627664086
aF-53.636274627664086
aF-54.70825112605102
aF-54.70825112605102
aF-55.78442137108958
aF-55.78442137108958
aF-56.81642363229478
aF-56.81642363229478
aF-57.78530989731105
aF-57.78530989731105
aF-58.68679734941665
aF-58.68679734941665
aF-59.52331913888259
aF-59.52331913888259
aF-59.65556047438036
aF-46.1893548458504
aF-46.1893548458504
aF-46.646925738106724
aF-46.646925738106724
aF-47.78632715450524
aF-47.78632715450524
aF-49.19958256275004
aF-49.19958256275004
aF-50.6261953929573
aF-50.6261953929573
aF-51.961504212840445
aF-51.961504212840445
aF-53.178747878613244
aF-53.178747878613244
aF-54.2807814835092
aF-54.2807814835092
aF-55.279591904930186
aF-55.279591904930186
aF-56.18865055963524
aF-56.18865055963524
aF-57.0203168987762
aF-46.1893548458504
aF-46.1893548458504
aF-46.646925738106724
aF-46.646925738106724
aF-47.78632715450524
aF-47.78632715450524
aF-49.19958256275004
aF-49.19958256275004
aF-50.6261953929573
aF-50.6261953929573
aF-51.961504212840445
aF-51.961504212840445
aF-53.178747878613244
aF-53.178747878613244
aF-54.2807814835092
aF-54.2807814835092
aF-55.279591904930186
aF-55.279591904930186
aF-56.18865055963524
aF-56.18865055963524
aF-57.0203168987762
aF-49.19958256275004
aF-49.19958256275004
aF-49.65712536219131
aF-49.65712536219131
aF-50.79651754892113
aF-50.79651754892113
aF-52.209723596191076
aF-52.209723596191076
aF-53.636274627664086
aF-53.636274627664086
aF-54.97149717406017
aF-54.97149717406017
aF-56.18865055963524
aF-56.18865055963524
aF-57.29058105329027
aF-57.29058105329027
aF-58.28926209374507
aF-58.28926209374507
aF-59.198138020230104
aF-59.198138020230104
aF-59.65556047438036
aF-46.1893548458504
aF-46.1893548458504
aF-46.646925738106724
aF-46.646925738106724
aF-47.78632715450524
aF-47.78632715450524
aF-49.19958256275004
aF-49.19958256275004
aF-50.6261953929573
aF-50.6261953929573
aF-51.961504212840445
aF-51.961504212840445
aF-53.178747878613244
aF-53.178747878613244
aF-54.2807814835092
aF-54.2807814835092
aF-55.279591904930186
aF-55.279591904930186
aF-56.18865055963524
aF-56.18865055963524
aF-57.0203168987762
aF-46.1893548458504
aF-46.1893548458504
aF-46.646925738106724
aF-46.646925738106724
aF-47.78632715450524
aF-47.78632715450524
aF-49.19958256275004
aF-49.19958256275004
aF-50.6261953929573
aF-50.6261953929573
aF-51.961504212840445
aF-51.961504212840445
aF-53.178747878613244
aF-53.178747878613244
aF-54.2807814835092
aF-54.2807814835092
aF-55.279591904930186
aF-55.279591904930186
aF-56.18865055963524
aF-56.18865055963524
aF-57.0203168987762
aF-49.19958256275004
aF-49.19958256275004
aF-49.65712536219131
aF-49.65712536219131
aF-50.79651754892113
aF-50.79651754892113
aF-52.209723596191076
aF-52.209723596191076
aF-53.636274627664086
aF-53.636274627664086
aF-54.97149717406017
aF-54.97149717406017
aF-56.18865055963524
aF-56.18865055963524
aF-57.29058105329027
aF-57.29058105329027
aF-58.28926209374507
aF-58.28926209374507
aF-59.198138020230104
aF-59.198138020230104
aF-59.65556047438036
aF-42.667577825231135
aF-42.667577825231135
aF-43.636675948613764
aF-43.636675948613764
aF-45.67784567481536
aF-45.67784567481536
aF-47.78632715450524
aF-47.78632715450524
aF-49.65712536219131
aF-49.65712536219131
aF-51.270737561046786
aF-51.270737561046786
aF-52.667264791563895
aF-52.667264791563895
aF-53.88930217948655
aF-53.88930217948655
aF-54.97149717406017
aF-54.97149717406017
aF-55.940460868697244
aF-55.940460868697244
aF-56.81642363229478
aF-42.667577825231135
aF-42.667577825231135
aF-43.636675948613764
aF-43.636675948613764
aF-45.67784567481536
aF-45.67784567481536
aF-47.78632715450524
aF-47.78632715450524
aF-49.65712536219131
aF-49.65712536219131
aF-51.270737561046786
aF-51.270737561046786
aF-52.667264791563895
aF-52.667264791563895
aF-53.88930217948655
aF-53.88930217948655
aF-54.97149717406017
aF-54.97149717406017
aF-55.940460868697244
aF-55.940460868697244
aF-56.81642363229478
aF-45.67784567481536
aF-45.67784567481536
aF-46.646925738106724
aF-46.646925738106724
aF-48.6880814180561
aF-48.6880814180561
aF-50.79651754892113
aF-50.79651754892113
aF-52.667264791563895
aF-52.667264791563895
aF-54.2807814835092
aF-54.2807814835092
aF-55.677203583545435
aF-55.677203583545435
aF-56.899144879379975
aF-56.899144879379975
aF-57.981196846806625
aF-57.981196846806625
aF-58.95001050700366
aF-58.95001050700366
aF-59.65556047438036
aF-42.667577825231135
aF-42.667577825231135
aF-43.636675948613764
aF-43.636675948613764
aF-45.67784567481536
aF-45.67784567481536
aF-47.78632715450524
aF-47.78632715450524
aF-49.65712536219131
aF-49.65712536219131
aF-51.270737561046786
aF-51.270737561046786
aF-52.667264791563895
aF-52.667264791563895
aF-53.88930217948655
aF-53.88930217948655
aF-54.97149717406017
aF-54.97149717406017
aF-55.940460868697244
aF-55.940460868697244
aF-56.81642363229478
aF-42.667577825231135
aF-42.667577825231135
aF-43.636675948613764
aF-43.636675948613764
aF-45.67784567481536
aF-45.67784567481536
aF-47.78632715450524
aF-47.78632715450524
aF-49.65712536219131
aF-49.65712536219131
aF-51.270737561046786
aF-51.270737561046786
aF-52.667264791563895
aF-52.667264791563895
aF-53.88930217948655
aF-53.88930217948655
aF-54.97149717406017
aF-54.97149717406017
aF-55.940460868697244
aF-55.940460868697244
aF-56.81642363229478
aF-45.67784567481536
aF-45.67784567481536
aF-46.646925738106724
aF-46.646925738106724
aF-48.6880814180561
aF-48.6880814180561
aF-50.79651754892113
aF-50.79651754892113
aF-52.667264791563895
aF-52.667264791563895
aF-54.2807814835092
aF-54.2807814835092
aF-55.677203583545435
aF-55.677203583545435
aF-56.899144879379975
aF-56.899144879379975
aF-57.981196846806625
aF-57.981196846806625
aF-58.95001050700366
aF-58.95001050700366
aF-59.65556047438036
aF-36.64700600581985
aF-36.64700600581985
aF-39.6572858953923
aF-39.6572858953923
aF-43.636675948613764
aF-43.636675948613764
aF-46.646925738106724
aF-46.646925738106724
aF-48.95134070557561
aF-48.95134070557561
aF-50.79651754892113
aF-50.79651754892113
aF-52.32870860554457
aF-52.32870860554457
aF-53.636274627664086
aF-53.636274627664086
aF-54.77557070683272
aF-54.77557070683272
aF-55.78442137108958
aF-55.78442137108958
aF-56.689332466520355
aF-36.64700600581985
aF-36.64700600581985
aF-39.6572858953923
aF-39.6572858953923
aF-43.636675948613764
aF-43.636675948613764
aF-46.646925738106724
aF-46.646925738106724
aF-48.95134070557561
aF-48.95134070557561
aF-50.79651754892113
aF-50.79651754892113
aF-52.32870860554457
aF-52.32870860554457
aF-53.636274627664086
aF-53.636274627664086
aF-54.77557070683272
aF-54.77557070683272
aF-55.78442137108958
aF-55.78442137108958
aF-56.689332466520355
aF-39.6572858953923
aF-39.6572858953923
aF-42.667577825231135
aF-42.667577825231135
aF-46.646925738106724
aF-46.646925738106724
aF-49.65712536219131
aF-49.65712536219131
aF-51.961504212840445
aF-51.961504212840445
aF-53.80659317248818
aF-53.80659317248818
aF-55.33868190552571
aF-55.33868190552571
aF-56.64612314255933
aF-56.64612314255933
aF-57.78530989731105
aF-57.78530989731105
aF-58.79399748714029
aF-58.79399748714029
aF-59.65556047438036
aF-36.64700600581985
aF-36.64700600581985
aF-39.6572858953923
aF-39.6572858953923
aF-43.636675948613764
aF-43.636675948613764
aF-46.646925738106724
aF-46.646925738106724
aF-48.95134070557561
aF-48.95134070557561
aF-50.79651754892113
aF-50.79651754892113
aF-52.32870860554457
aF-52.32870860554457
aF-53.636274627664086
aF-53.636274627664086
aF-54.77557070683272
aF-54.77557070683272
aF-55.78442137108958
aF-55.78442137108958
aF-56.689332466520355
aF-36.64700600581985
aF-36.64700600581985
aF-39.6572858953923
aF-39.6572858953923
aF-43.636675948613764
aF-43.636675948613764
aF-46.646925738106724
aF-46.646925738106724
aF-48.95134070557561
aF-48.95134070557561
aF-50.79651754892113
aF-50.79651754892113
aF-52.32870860554457
aF-52.32870860554457
aF-53.636274627664086
aF-53.636274627664086
aF-54.77557070683272
aF-54.77557070683272
aF-55.78442137108958
aF-55.78442137108958
aF-56.689332466520355
aF-39.6572858953923
aF-39.6572858953923
aF-42.667577825231135
aF-42.667577825231135
aF-46.646925738106724
aF-46.646925738106724
aF-49.65712536219131
aF-49.65712536219131
aF-51.961504212840445
aF-51.961504212840445
aF-53.80659317248818
aF-53.80659317248818
aF-55.33868190552571
aF-55.33868190552571
aF-56.64612314255933
aF-56.64612314255933
aF-57.78530989731105
aF-57.78530989731105
aF-58.79399748714029
aF-58.79399748714029
aF-59.65556047438036
aF-50.6261953929573
aF-50.6261953929573
aF-36.64700600581985
aF-36.64700600581985
aF-42.667577825231135
aF-42.667577825231135
aF-46.1893548458504
aF-46.1893548458504
aF-48.6880814180561
aF-48.6880814180561
aF-50.6261953929573
aF-50.6261953929573
aF-52.209723596191076
aF-52.209723596191076
aF-53.548539196963574
aF-53.548539196963574
aF-54.70825112605102
aF-54.70825112605102
aF-55.731147883255986
aF-55.731147883255986
aF-56.64612314255933
aF-50.6261953929573
aF-50.6261953929573
aF-36.64700600581985
aF-36.64700600581985
aF-42.667577825231135
aF-42.667577825231135
aF-46.1893548458504
aF-46.1893548458504
aF-48.6880814180561
aF-48.6880814180561
aF-50.6261953929573
aF-50.6261953929573
aF-52.209723596191076
aF-52.209723596191076
aF-53.548539196963574
aF-53.548539196963574
aF-54.70825112605102
aF-54.70825112605102
aF-55.731147883255986
aF-55.731147883255986
aF-56.64612314255933
aF-53.636274627664086
aF-53.636274627664086
aF-39.6572858953923
aF-39.6572858953923
aF-45.67784567481536
aF-45.67784567481536
aF-49.19958256275004
aF-49.19958256275004
aF-51.698233687481085
aF-51.698233687481085
aF-53.636274627664086
aF-53.636274627664086
aF-55.219705723878896
aF-55.219705723878896
aF-56.55841640172221
aF-56.55841640172221
aF-57.71797326205701
aF-57.71797326205701
aF-58.740732823460114
aF-58.740732823460114
aF-59.65556047438036
aF-50.6261953929573
aF-50.6261953929573
aF-36.64700600581985
aF-36.64700600581985
aF-42.667577825231135
aF-42.667577825231135
aF-46.1893548458504
aF-46.1893548458504
aF-48.6880814180561
aF-48.6880814180561
aF-50.6261953929573
aF-50.6261953929573
aF-52.209723596191076
aF-52.209723596191076
aF-53.548539196963574
aF-53.548539196963574
aF-54.70825112605102
aF-54.70825112605102
aF-55.731147883255986
aF-55.731147883255986
aF-56.64612314255933
aF-50.6261953929573
aF-50.6261953929573
aF-36.64700600581985
aF-36.64700600581985
aF-42.667577825231135
aF-42.667577825231135
aF-46.1893548458504
aF-46.1893548458504
aF-48.6880814180561
aF-48.6880814180561
aF-50.6261953929573
aF-50.6261953929573
aF-52.209723596191076
aF-52.209723596191076
aF-53.548539196963574
aF-53.548539196963574
aF-54.70825112605102
aF-54.70825112605102
aF-55.731147883255986
aF-55.731147883255986
aF-56.64612314255933
aF-53.636274627664086
aF-53.636274627664086
aF-39.6572858953923
aF-39.6572858953923
aF-45.67784567481536
aF-45.67784567481536
aF-49.19958256275004
aF-49.19958256275004
aF-51.698233687481085
aF-51.698233687481085
aF-53.636274627664086
aF-53.636274627664086
aF-55.219705723878896
aF-55.219705723878896
aF-56.55841640172221
aF-56.55841640172221
aF-57.71797326205701
aF-57.71797326205701
aF-58.740732823460114
aF-58.740732823460114
aF-59.65556047438036
aF-36.64700600581985
aF-36.64700600581985
aF-39.6572858953923
aF-39.6572858953923
aF-43.636675948613764
aF-43.636675948613764
aF-46.646925738106724
aF-46.646925738106724
aF-48.95134070557561
aF-48.95134070557561
aF-50.79651754892113
aF-50.79651754892113
aF-52.32870860554457
aF-52.32870860554457
aF-53.636274627664086
aF-53.636274627664086
aF-54.77557070683272
aF-54.77557070683272
aF-55.78442137108958
aF-55.78442137108958
aF-56.689332466520355
aF-36.64700600581985
aF-36.64700600581985
aF-39.6572858953923
aF-39.6572858953923
aF-43.636675948613764
aF-43.636675948613764
aF-46.646925738106724
aF-46.646925738106724
aF-48.95134070557561
aF-48.95134070557561
aF-50.79651754892113
aF-50.79651754892113
aF-52.32870860554457
aF-52.32870860554457
aF-53.636274627664086
aF-53.636274627664086
aF-54.77557070683272
aF-54.77557070683272
aF-55.78442137108958
aF-55.78442137108958
aF-56.689332466520355
aF-39.6572858953923
aF-39.6572858953923
aF-42.667577825231135
aF-42.667577825231135
aF-46.646925738106724
aF-46.646925738106724
aF-49.65712536219131
aF-49.65712536219131
aF-51.961504212840445
aF-51.961504212840445
aF-53.80659317248818
aF-53.80659317248818
aF-55.33868190552571
aF-55.33868190552571
aF-56.64612314255933
aF-56.64612314255933
aF-57.78530989731105
aF-57.78530989731105
aF-58.79399748714029
aF-58.79399748714029
aF-59.65556047438036
aF-36.64700600581985
aF-36.64700600581985
aF-39.6572858953923
aF-39.6572858953923
aF-43.636675948613764
aF-43.636675948613764
aF-46.646925738106724
aF-46.646925738106724
aF-48.95134070557561
aF-48.95134070557561
aF-50.79651754892113
aF-50.79651754892113
aF-52.32870860554457
aF-52.32870860554457
aF-53.636274627664086
aF-53.636274627664086
aF-54.77557070683272
aF-54.77557070683272
aF-55.78442137108958
aF-55.78442137108958
aF-56.689332466520355
aF-36.64700600581985
aF-36.64700600581985
aF-39.6572858953923
aF-39.6572858953923
aF-43.636675948613764
aF-43.636675948613764
aF-46.646925738106724
aF-46.646925738106724
aF-48.95134070557561
aF-48.95134070557561
aF-50.79651754892113
aF-50.79651754892113
aF-52.32870860554457
aF-52.32870860554457
aF-53.636274627664086
aF-53.636274627664086
aF-54.77557070683272
aF-54.77557070683272
aF-55.78442137108958
aF-55.78442137108958
aF-56.689332466520355
aF-39.6572858953923
aF-39.6572858953923
aF-42.667577825231135
aF-42.667577825231135
aF-46.646925738106724
aF-46.646925738106724
aF-49.65712536219131
aF-49.65712536219131
aF-51.961504212840445
aF-51.961504212840445
aF-53.80659317248818
aF-53.80659317248818
aF-55.33868190552571
aF-55.33868190552571
aF-56.64612314255933
aF-56.64612314255933
aF-57.78530989731105
aF-57.78530989731105
aF-58.79399748714029
aF-58.79399748714029
aF-59.65556047438036
aF-42.667577825231135
aF-42.667577825231135
aF-43.636675948613764
aF-43.636675948613764
aF-45.67784567481536
aF-45.67784567481536
aF-47.78632715450524
aF-47.78632715450524
aF-49.65712536219131
aF-49.65712536219131
aF-51.270737561046786
aF-51.270737561046786
aF-52.667264791563895
aF-52.667264791563895
aF-53.88930217948655
aF-53.88930217948655
aF-54.97149717406017
aF-54.97149717406017
aF-55.940460868697244
aF-55.940460868697244
aF-56.81642363229478
aF-42.667577825231135
aF-42.667577825231135
aF-43.636675948613764
aF-43.636675948613764
aF-45.67784567481536
aF-45.67784567481536
aF-47.78632715450524
aF-47.78632715450524
aF-49.65712536219131
aF-49.65712536219131
aF-51.270737561046786
aF-51.270737561046786
aF-52.667264791563895
aF-52.667264791563895
aF-53.88930217948655
aF-53.88930217948655
aF-54.97149717406017
aF-54.97149717406017
aF-55.940460868697244
aF-55.940460868697244
aF-56.81642363229478
aF-45.67784567481536
aF-45.67784567481536
aF-46.646925738106724
aF-46.646925738106724
aF-48.6880814180561
aF-48.6880814180561
aF-50.79651754892113
aF-50.79651754892113
aF-52.667264791563895
aF-52.667264791563895
aF-54.2807814835092
aF-54.2807814835092
aF-55.677203583545435
aF-55.677203583545435
aF-56.899144879379975
aF-56.899144879379975
aF-57.981196846806625
aF-57.981196846806625
aF-58.95001050700366
aF-58.95001050700366
aF-59.65556047438036
aF-42.667577825231135
aF-42.667577825231135
aF-43.636675948613764
aF-43.636675948613764
aF-45.67784567481536
aF-45.67784567481536
aF-47.78632715450524
aF-47.78632715450524
aF-49.65712536219131
aF-49.65712536219131
aF-51.270737561046786
aF-51.270737561046786
aF-52.667264791563895
aF-52.667264791563895
aF-53.88930217948655
aF-53.88930217948655
aF-54.97149717406017
aF-54.97149717406017
aF-55.940460868697244
aF-55.940460868697244
aF-56.81642363229478
aF-42.667577825231135
aF-42.667577825231135
aF-43.636675948613764
aF-43.636675948613764
aF-45.67784567481536
aF-45.67784567481536
aF-47.78632715450524
aF-47.78632715450524
aF-49.65712536219131
aF-49.65712536219131
aF-51.270737561046786
aF-51.270737561046786
aF-52.667264791563895
aF-52.667264791563895
aF-53.88930217948655
aF-53.88930217948655
aF-54.97149717406017
aF-54.97149717406017
aF-55.940460868697244
aF-55.940460868697244
aF-56.81642363229478
aF-45.67784567481536
aF-45.67784567481536
aF-46.646925738106724
aF-46.646925738106724
aF-48.6880814180561
aF-48.6880814180561
aF-50.79651754892113
aF-50.79651754892113
aF-52.667264791563895
aF-52.667264791563895
aF-54.2807814835092
aF-54.2807814835092
aF-55.677203583545435
aF-55.677203583545435
aF-56.899144879379975
aF-56.899144879379975
aF-57.981196846806625
aF-57.981196846806625
aF-58.95001050700366
aF-58.95001050700366
aF-59.65556047438036
aF-46.1893548458504
aF-46.1893548458504
aF-46.646925738106724
aF-46.646925738106724
aF-47.78632715450524
aF-47.78632715450524
aF-49.19958256275004
aF-49.19958256275004
aF-50.6261953929573
aF-50.6261953929573
aF-51.961504212840445
aF-51.961504212840445
aF-53.178747878613244
aF-53.178747878613244
aF-54.2807814835092
aF-54.2807814835092
aF-55.279591904930186
aF-55.279591904930186
aF-56.18865055963524
aF-56.18865055963524
aF-57.0203168987762
aF-46.1893548458504
aF-46.1893548458504
aF-46.646925738106724
aF-46.646925738106724
aF-47.78632715450524
aF-47.78632715450524
aF-49.19958256275004
aF-49.19958256275004
aF-50.6261953929573
aF-50.6261953929573
aF-51.961504212840445
aF-51.961504212840445
aF-53.178747878613244
aF-53.178747878613244
aF-54.2807814835092
aF-54.2807814835092
aF-55.279591904930186
aF-55.279591904930186
aF-56.18865055963524
aF-56.18865055963524
aF-57.0203168987762
aF-49.19958256275004
aF-49.19958256275004
aF-49.65712536219131
aF-49.65712536219131
aF-50.79651754892113
aF-50.79651754892113
aF-52.209723596191076
aF-52.209723596191076
aF-53.636274627664086
aF-53.636274627664086
aF-54.97149717406017
aF-54.97149717406017
aF-56.18865055963524
aF-56.18865055963524
aF-57.29058105329027
aF-57.29058105329027
aF-58.28926209374507
aF-58.28926209374507
aF-59.198138020230104
aF-59.198138020230104
aF-59.65556047438036
aF-46.1893548458504
aF-46.1893548458504
aF-46.646925738106724
aF-46.646925738106724
aF-47.78632715450524
aF-47.78632715450524
aF-49.19958256275004
aF-49.19958256275004
aF-50.6261953929573
aF-50.6261953929573
aF-51.961504212840445
aF-51.961504212840445
aF-53.178747878613244
aF-53.178747878613244
aF-54.2807814835092
aF-54.2807814835092
aF-55.279591904930186
aF-55.279591904930186
aF-56.18865055963524
aF-56.18865055963524
aF-57.0203168987762
aF-46.1893548458504
aF-46.1893548458504
aF-46.646925738106724
aF-46.646925738106724
aF-47.78632715450524
aF-47.78632715450524
aF-49.19958256275004
aF-49.19958256275004
aF-50.6261953929573
aF-50.6261953929573
aF-51.961504212840445
aF-51.961504212840445
aF-53.178747878613244
aF-53.178747878613244
aF-54.2807814835092
aF-54.2807814835092
aF-55.279591904930186
aF-55.279591904930186
aF-56.18865055963524
aF-56.18865055963524
aF-57.0203168987762
aF-49.19958256275004
aF-49.19958256275004
aF-49.65712536219131
aF-49.65712536219131
aF-50.79651754892113
aF-50.79651754892113
aF-52.209723596191076
aF-52.209723596191076
aF-53.636274627664086
aF-53.636274627664086
aF-54.97149717406017
aF-54.97149717406017
aF-56.18865055963524
aF-56.18865055963524
aF-57.29058105329027
aF-57.29058105329027
aF-58.28926209374507
aF-58.28926209374507
aF-59.198138020230104
aF-59.198138020230104
aF-59.65556047438036
aF-48.6880814180561
aF-48.6880814180561
aF-48.95134070557561
aF-48.95134070557561
aF-49.65712536219131
aF-49.65712536219131
aF-50.6261953929573
aF-50.6261953929573
aF-51.698233687481085
aF-51.698233687481085
aF-52.774491606830594
aF-52.774491606830594
aF-53.80659317248818
aF-53.80659317248818
aF-54.77557070683272
aF-54.77557070683272
aF-55.677203583545435
aF-55.677203583545435
aF-56.51387539504257
aF-56.51387539504257
aF-57.29058105329027
aF-48.6880814180561
aF-48.6880814180561
aF-48.95134070557561
aF-48.95134070557561
aF-49.65712536219131
aF-49.65712536219131
aF-50.6261953929573
aF-50.6261953929573
aF-51.698233687481085
aF-51.698233687481085
aF-52.774491606830594
aF-52.774491606830594
aF-53.80659317248818
aF-53.80659317248818
aF-54.77557070683272
aF-54.77557070683272
aF-55.677203583545435
aF-55.677203583545435
aF-56.51387539504257
aF-56.51387539504257
aF-57.29058105329027
aF-51.698233687481085
aF-51.698233687481085
aF-51.961504212840445
aF-51.961504212840445
aF-52.667264791563895
aF-52.667264791563895
aF-53.636274627664086
aF-53.636274627664086
aF-54.70825112605102
aF-54.70825112605102
aF-55.78442137108958
aF-55.78442137108958
aF-56.81642363229478
aF-56.81642363229478
aF-57.78530989731105
aF-57.78530989731105
aF-58.68679734941665
aF-58.68679734941665
aF-59.52331913888259
aF-59.52331913888259
aF-59.65556047438036
aF-48.6880814180561
aF-48.6880814180561
aF-48.95134070557561
aF-48.95134070557561
aF-49.65712536219131
aF-49.65712536219131
aF-50.6261953929573
aF-50.6261953929573
aF-51.698233687481085
aF-51.698233687481085
aF-52.774491606830594
aF-52.774491606830594
aF-53.80659317248818
aF-53.80659317248818
aF-54.77557070683272
aF-54.77557070683272
aF-55.677203583545435
aF-55.677203583545435
aF-56.51387539504257
aF-56.51387539504257
aF-57.29058105329027
aF-48.6880814180561
aF-48.6880814180561
aF-48.95134070557561
aF-48.95134070557561
aF-49.65712536219131
aF-49.65712536219131
aF-50.6261953929573
aF-50.6261953929573
aF-51.698233687481085
aF-51.698233687481085
aF-52.774491606830594
aF-52.774491606830594
aF-53.80659317248818
aF-53.80659317248818
aF-54.77557070683272
aF-54.77557070683272
aF-55.677203583545435
aF-55.677203583545435
aF-56.51387539504257
aF-56.51387539504257
aF-57.29058105329027
aF-51.698233687481085
aF-51.698233687481085
aF-51.961504212840445
aF-51.961504212840445
aF-52.667264791563895
aF-52.667264791563895
aF-53.636274627664086
aF-53.636274627664086
aF-54.70825112605102
aF-54.70825112605102
aF-55.78442137108958
aF-55.78442137108958
aF-56.81642363229478
aF-56.81642363229478
aF-57.78530989731105
aF-57.78530989731105
aF-58.68679734941665
aF-58.68679734941665
aF-59.52331913888259
aF-59.52331913888259
aF-59.65556047438036
aF-50.6261953929573
aF-50.6261953929573
aF-50.79651754892113
aF-50.79651754892113
aF-51.270737561046786
aF-51.270737561046786
aF-51.961504212840445
aF-51.961504212840445
aF-52.774491606830594
aF-52.774491606830594
aF-53.636274627664086
aF-53.636274627664086
aF-54.4997722086753
aF-54.4997722086753
aF-55.33868190552571
aF-55.33868190552571
aF-56.14013215265363
aF-56.14013215265363
aF-56.899144879379975
aF-56.899144879379975
aF-57.61499756936388
aF-50.6261953929573
aF-50.6261953929573
aF-50.79651754892113
aF-50.79651754892113
aF-51.270737561046786
aF-51.270737561046786
aF-51.961504212840445
aF-51.961504212840445
aF-52.774491606830594
aF-52.774491606830594
aF-53.636274627664086
aF-53.636274627664086
aF-54.4997722086753
aF-54.4997722086753
aF-55.33868190552571
aF-55.33868190552571
aF-56.14013215265363
aF-56.14013215265363
aF-56.899144879379975
aF-56.899144879379975
aF-57.61499756936388
aF-53.636274627664086
aF-53.636274627664086
aF-53.80659317248818
aF-53.80659317248818
aF-54.2807814835092
aF-54.2807814835092
aF-54.97149717406017
aF-54.97149717406017
aF-55.78442137108958
aF-55.78442137108958
aF-56.64612314255933
aF-56.64612314255933
aF-57.5095336633614
aF-57.5095336633614
aF-58.34832862254786
aF-58.34832862254786
aF-59.149628638922486
aF-59.149628638922486
aF-59.65556047438036
aF-59.65556047438036
aF-59.65556047438036
aF-56.64612314255933
aF-59.65556047438036
aF-59.65556047438036
aF-59.65556047438036
aF-59.65556047438036
aF-59.65556047438036
aF-59.65556047438036
aF-59.65556047438036
aF-59.65556047438036
aF-59.65556047438036
aF-59.65556047438036
aF-59.65556047438036
aF-59.65556047438036
aF-59.65556047438036
aF-59.65556047438036
aF-59.65556047438036
aF-59.65556047438036
aF-59.65556047438036
aF-59.65556047438036
aF-59.65556047438036
aF-59.65556047438036
aF-59.65556047438036
aF-59.65556047438036
aF-59.65556047438036
aF-59.65556047438036
aF-59.65556047438036
aF-59.65556047438036
aF-59.65556047438036
aF-59.65556047438036
aF-59.65556047438036
aF-59.65556047438036
aF-59.65556047438036
aF-59.65556047438036
aF-58.740732823460114
aF-58.79399748714029
aF-58.95001050700366
aF-59.198138020230104
aF-59.52331913888259
aF-59.65556047438036
aF-59.65556047438036
aF-59.65556047438036
aF-59.65556047438036
aF-59.65556047438036
aF-59.65556047438036
aF-58.740732823460114
aF-58.79399748714029
aF-58.95001050700366
aF-59.198138020230104
aF-59.52331913888259
aF-59.65556047438036
aF-59.65556047438036
aF-59.65556047438036
aF-59.65556047438036
aF-59.65556047438036
aF-59.65556047438036
aF-58.740732823460114
aF-58.79399748714029
aF-58.95001050700366
aF-59.198138020230104
aF-59.52331913888259
aF-59.65556047438036
aF-59.65556047438036
aF-59.65556047438036
aF-59.65556047438036
aF-59.65556047438036
aF-59.65556047438036
aF-57.71797326205701
aF-57.78530989731105
aF-57.981196846806625
aF-58.28926209374507
aF-58.68679734941665
aF-59.149628638922486
aF-59.65556047438036
aF-59.65556047438036
aF-59.65556047438036
aF-59.65556047438036
aF-59.65556047438036
aF-57.71797326205701
aF-57.78530989731105
aF-57.981196846806625
aF-58.28926209374507
aF-58.68679734941665
aF-59.149628638922486
aF-59.65556047438036
aF-59.65556047438036
aF-59.65556047438036
aF-59.65556047438036
aF-59.65556047438036
aF-57.71797326205701
aF-57.78530989731105
aF-57.981196846806625
aF-58.28926209374507
aF-58.68679734941665
aF-59.149628638922486
aF-59.65556047438036
aF-59.65556047438036
aF-59.65556047438036
aF-59.65556047438036
aF-59.65556047438036
aF-56.55841640172221
aF-56.64612314255933
aF-56.899144879379975
aF-57.29058105329027
aF-57.78530989731105
aF-58.34832862254786
aF-58.95001050700366
aF-59.567831662023885
aF-59.65556047438036
aF-59.65556047438036
aF-59.65556047438036
aF-56.55841640172221
aF-56.64612314255933
aF-56.899144879379975
aF-57.29058105329027
aF-57.78530989731105
aF-58.34832862254786
aF-58.95001050700366
aF-59.567831662023885
aF-59.65556047438036
aF-59.65556047438036
aF-59.65556047438036
aF-56.55841640172221
aF-56.64612314255933
aF-56.899144879379975
aF-57.29058105329027
aF-57.78530989731105
aF-58.34832862254786
aF-58.95001050700366
aF-59.567831662023885
aF-59.65556047438036
aF-59.65556047438036
aF-59.65556047438036
aF-55.219705723878896
aF-55.33868190552571
aF-55.677203583545435
aF-56.18865055963524
aF-56.81642363229478
aF-57.5095336633614
aF-58.229370092385075
aF-58.95001050700366
aF-59.65556047438036
aF-59.65556047438036
aF-59.65556047438036
aF-55.219705723878896
aF-55.33868190552571
aF-55.677203583545435
aF-56.18865055963524
aF-56.81642363229478
aF-57.5095336633614
aF-58.229370092385075
aF-58.95001050700366
aF-59.65556047438036
aF-59.65556047438036
aF-59.65556047438036
aF-55.219705723878896
aF-55.33868190552571
aF-55.677203583545435
aF-56.18865055963524
aF-56.81642363229478
aF-57.5095336633614
aF-58.229370092385075
aF-58.95001050700366
aF-59.65556047438036
aF-59.65556047438036
aF-59.65556047438036
aF-53.636274627664086
aF-53.80659317248818
aF-54.2807814835092
aF-54.97149717406017
aF-55.78442137108958
aF-56.64612314255933
aF-57.5095336633614
aF-58.34832862254786
aF-59.149628638922486
aF-59.65556047438036
aF-59.65556047438036
aF-53.636274627664086
aF-53.80659317248818
aF-54.2807814835092
aF-54.97149717406017
aF-55.78442137108958
aF-56.64612314255933
aF-57.5095336633614
aF-58.34832862254786
aF-59.149628638922486
aF-59.65556047438036
aF-59.65556047438036
aF-53.636274627664086
aF-53.80659317248818
aF-54.2807814835092
aF-54.97149717406017
aF-55.78442137108958
aF-56.64612314255933
aF-57.5095336633614
aF-58.34832862254786
aF-59.149628638922486
aF-59.65556047438036
aF-59.65556047438036
aF-51.698233687481085
aF-51.961504212840445
aF-52.667264791563895
aF-53.636274627664086
aF-54.70825112605102
aF-55.78442137108958
aF-56.81642363229478
aF-57.78530989731105
aF-58.68679734941665
aF-59.52331913888259
aF-59.65556047438036
aF-51.698233687481085
aF-51.961504212840445
aF-52.667264791563895
aF-53.636274627664086
aF-54.70825112605102
aF-55.78442137108958
aF-56.81642363229478
aF-57.78530989731105
aF-58.68679734941665
aF-59.52331913888259
aF-59.65556047438036
aF-51.698233687481085
aF-51.961504212840445
aF-52.667264791563895
aF-53.636274627664086
aF-54.70825112605102
aF-55.78442137108958
aF-56.81642363229478
aF-57.78530989731105
aF-58.68679734941665
aF-59.52331913888259
aF-59.65556047438036
aF-49.19958256275004
aF-49.65712536219131
aF-50.79651754892113
aF-52.209723596191076
aF-53.636274627664086
aF-54.97149717406017
aF-56.18865055963524
aF-57.29058105329027
aF-58.28926209374507
aF-59.198138020230104
aF-59.65556047438036
aF-49.19958256275004
aF-49.65712536219131
aF-50.79651754892113
aF-52.209723596191076
aF-53.636274627664086
aF-54.97149717406017
aF-56.18865055963524
aF-57.29058105329027
aF-58.28926209374507
aF-59.198138020230104
aF-59.65556047438036
aF-49.19958256275004
aF-49.65712536219131
aF-50.79651754892113
aF-52.209723596191076
aF-53.636274627664086
aF-54.97149717406017
aF-56.18865055963524
aF-57.29058105329027
aF-58.28926209374507
aF-59.198138020230104
aF-59.65556047438036
aF-45.67784567481536
aF-46.646925738106724
aF-48.6880814180561
aF-50.79651754892113
aF-52.667264791563895
aF-54.2807814835092
aF-55.677203583545435
aF-56.899144879379975
aF-57.981196846806625
aF-58.95001050700366
aF-59.65556047438036
aF-45.67784567481536
aF-46.646925738106724
aF-48.6880814180561
aF-50.79651754892113
aF-52.667264791563895
aF-54.2807814835092
aF-55.677203583545435
aF-56.899144879379975
aF-57.981196846806625
aF-58.95001050700366
aF-59.65556047438036
aF-45.67784567481536
aF-46.646925738106724
aF-48.6880814180561
aF-50.79651754892113
aF-52.667264791563895
aF-54.2807814835092
aF-55.677203583545435
aF-56.899144879379975
aF-57.981196846806625
aF-58.95001050700366
aF-59.65556047438036
aF-39.6572858953923
aF-42.667577825231135
aF-46.646925738106724
aF-49.65712536219131
aF-51.961504212840445
aF-53.80659317248818
aF-55.33868190552571
aF-56.64612314255933
aF-57.78530989731105
aF-58.79399748714029
aF-59.65556047438036
aF-39.6572858953923
aF-42.667577825231135
aF-46.646925738106724
aF-49.65712536219131
aF-51.961504212840445
aF-53.80659317248818
aF-55.33868190552571
aF-56.64612314255933
aF-57.78530989731105
aF-58.79399748714029
aF-59.65556047438036
aF-39.6572858953923
aF-42.667577825231135
aF-46.646925738106724
aF-49.65712536219131
aF-51.961504212840445
aF-53.80659317248818
aF-55.33868190552571
aF-56.64612314255933
aF-57.78530989731105
aF-58.79399748714029
aF-59.65556047438036
aF-53.636274627664086
aF-39.6572858953923
aF-45.67784567481536
aF-49.19958256275004
aF-51.698233687481085
aF-53.636274627664086
aF-55.219705723878896
aF-56.55841640172221
aF-57.71797326205701
aF-58.740732823460114
aF-59.65556047438036
aF-53.636274627664086
aF-39.6572858953923
aF-45.67784567481536
aF-49.19958256275004
aF-51.698233687481085
aF-53.636274627664086
aF-55.219705723878896
aF-56.55841640172221
aF-57.71797326205701
aF-58.740732823460114
aF-59.65556047438036
aF-53.636274627664086
aF-39.6572858953923
aF-45.67784567481536
aF-49.19958256275004
aF-51.698233687481085
aF-53.636274627664086
aF-55.219705723878896
aF-56.55841640172221
aF-57.71797326205701
aF-58.740732823460114
aF-59.65556047438036
aF-39.6572858953923
aF-42.667577825231135
aF-46.646925738106724
aF-49.65712536219131
aF-51.961504212840445
aF-53.80659317248818
aF-55.33868190552571
aF-56.64612314255933
aF-57.78530989731105
aF-58.79399748714029
aF-59.65556047438036
aF-39.6572858953923
aF-42.667577825231135
aF-46.646925738106724
aF-49.65712536219131
aF-51.961504212840445
aF-53.80659317248818
aF-55.33868190552571
aF-56.64612314255933
aF-57.78530989731105
aF-58.79399748714029
aF-59.65556047438036
aF-39.6572858953923
aF-42.667577825231135
aF-46.646925738106724
aF-49.65712536219131
aF-51.961504212840445
aF-53.80659317248818
aF-55.33868190552571
aF-56.64612314255933
aF-57.78530989731105
aF-58.79399748714029
aF-59.65556047438036
aF-45.67784567481536
aF-46.646925738106724
aF-48.6880814180561
aF-50.79651754892113
aF-52.667264791563895
aF-54.2807814835092
aF-55.677203583545435
aF-56.899144879379975
aF-57.981196846806625
aF-58.95001050700366
aF-59.65556047438036
aF-45.67784567481536
aF-46.646925738106724
aF-48.6880814180561
aF-50.79651754892113
aF-52.667264791563895
aF-54.2807814835092
aF-55.677203583545435
aF-56.899144879379975
aF-57.981196846806625
aF-58.95001050700366
aF-59.65556047438036
aF-45.67784567481536
aF-46.646925738106724
aF-48.6880814180561
aF-50.79651754892113
aF-52.667264791563895
aF-54.2807814835092
aF-55.677203583545435
aF-56.899144879379975
aF-57.981196846806625
aF-58.95001050700366
aF-59.65556047438036
aF-49.19958256275004
aF-49.65712536219131
aF-50.79651754892113
aF-52.209723596191076
aF-53.636274627664086
aF-54.97149717406017
aF-56.18865055963524
aF-57.29058105329027
aF-58.28926209374507
aF-59.198138020230104
aF-59.65556047438036
aF-49.19958256275004
aF-49.65712536219131
aF-50.79651754892113
aF-52.209723596191076
aF-53.636274627664086
aF-54.97149717406017
aF-56.18865055963524
aF-57.29058105329027
aF-58.28926209374507
aF-59.198138020230104
aF-59.65556047438036
aF-49.19958256275004
aF-49.65712536219131
aF-50.79651754892113
aF-52.209723596191076
aF-53.636274627664086
aF-54.97149717406017
aF-56.18865055963524
aF-57.29058105329027
aF-58.28926209374507
aF-59.198138020230104
aF-59.65556047438036
aF-51.698233687481085
aF-51.961504212840445
aF-52.667264791563895
aF-53.636274627664086
aF-54.70825112605102
aF-55.78442137108958
aF-56.81642363229478
aF-57.78530989731105
aF-58.68679734941665
aF-59.52331913888259
aF-59.65556047438036
aF-51.698233687481085
aF-51.961504212840445
aF-52.667264791563895
aF-53.636274627664086
aF-54.70825112605102
aF-55.78442137108958
aF-56.81642363229478
aF-57.78530989731105
aF-58.68679734941665
aF-59.52331913888259
aF-59.65556047438036
aF-51.698233687481085
aF-51.961504212840445
aF-52.667264791563895
aF-53.636274627664086
aF-54.70825112605102
aF-55.78442137108958
aF-56.81642363229478
aF-57.78530989731105
aF-58.68679734941665
aF-59.52331913888259
aF-59.65556047438036
aF-53.636274627664086
aF-53.80659317248818
aF-54.2807814835092
aF-54.97149717406017
aF-55.78442137108958
aF-56.64612314255933
aF-57.5095336633614
aF-58.34832862254786
aF-59.149628638922486
aF-59.65556047438036
aF-59.65556047438036
aF-53.636274627664086
aF-53.80659317248818
aF-54.2807814835092
aF-54.97149717406017
aF-55.78442137108958
aF-56.64612314255933
aF-57.5095336633614
aF-58.34832862254786
aF-59.149628638922486
aF-59.65556047438036
aF-59.65556047438036
aF-53.636274627664086
aF-53.80659317248818
aF-54.2807814835092
aF-54.97149717406017
aF-55.78442137108958
aF-56.64612314255933
aF-57.5095336633614
aF-58.34832862254786
aF-59.149628638922486
aF-59.65556047438036
aF-59.65556047438036
aF-53.636274627664086
aF-59.65556047438036
aF-59.65556047438036
aF-59.65556047438036
aF-59.65556047438036
aF-59.65556047438036
aF-59.65556047438036
aF-59.65556047438036
aF-59.65556047438036
aF-59.65556047438036
aF-59.65556047438036
aF-56.64612314255933
aF-59.65556047438036
aF-59.65556047438036
aF-59.65556047438036
aF-59.65556047438036
aF-59.65556047438036
aF-59.65556047438036
aF-59.65556047438036
aF-59.65556047438036
aF-59.65556047438036
aF-59.65556047438036
aF-59.65556047438036
aF-59.65556047438036
aF-59.65556047438036
aF-59.65556047438036
aF-59.65556047438036
aF-59.65556047438036
aF-59.65556047438036
aF-59.65556047438036
aF-59.65556047438036
aF-59.65556047438036
aF-59.65556047438036
aF-58.740732823460114
aF-58.79399748714029
aF-58.95001050700366
aF-59.198138020230104
aF-59.52331913888259
aF-59.65556047438036
aF-59.65556047438036
aF-59.65556047438036
aF-59.65556047438036
aF-59.65556047438036
aF-59.65556047438036
aF-58.740732823460114
aF-58.79399748714029
aF-58.95001050700366
aF-59.198138020230104
aF-59.52331913888259
aF-59.65556047438036
aF-59.65556047438036
aF-59.65556047438036
aF-59.65556047438036
aF-59.65556047438036
aF-59.65556047438036
aF-58.740732823460114
aF-58.79399748714029
aF-58.95001050700366
aF-59.198138020230104
aF-59.52331913888259
aF-59.65556047438036
aF-59.65556047438036
aF-59.65556047438036
aF-59.65556047438036
aF-59.65556047438036
aF-59.65556047438036
aF-57.71797326205701
aF-57.78530989731105
aF-57.981196846806625
aF-58.28926209374507
aF-58.68679734941665
aF-59.149628638922486
aF-59.65556047438036
aF-59.65556047438036
aF-59.65556047438036
aF-59.65556047438036
aF-59.65556047438036
aF-57.71797326205701
aF-57.78530989731105
aF-57.981196846806625
aF-58.28926209374507
aF-58.68679734941665
aF-59.149628638922486
aF-59.65556047438036
aF-59.65556047438036
aF-59.65556047438036
aF-59.65556047438036
aF-59.65556047438036
aF-57.71797326205701
aF-57.78530989731105
aF-57.981196846806625
aF-58.28926209374507
aF-58.68679734941665
aF-59.149628638922486
aF-59.65556047438036
aF-59.65556047438036
aF-59.65556047438036
aF-59.65556047438036
aF-59.65556047438036
aF-56.55841640172221
aF-56.64612314255933
aF-56.899144879379975
aF-57.29058105329027
aF-57.78530989731105
aF-58.34832862254786
aF-58.95001050700366
aF-59.567831662023885
aF-59.65556047438036
aF-59.65556047438036
aF-59.65556047438036
aF-56.55841640172221
aF-56.64612314255933
aF-56.899144879379975
aF-57.29058105329027
aF-57.78530989731105
aF-58.34832862254786
aF-58.95001050700366
aF-59.567831662023885
aF-59.65556047438036
aF-59.65556047438036
aF-59.65556047438036
aF-56.55841640172221
aF-56.64612314255933
aF-56.899144879379975
aF-57.29058105329027
aF-57.78530989731105
aF-58.34832862254786
aF-58.95001050700366
aF-59.567831662023885
aF-59.65556047438036
aF-59.65556047438036
aF-59.65556047438036
aF-55.219705723878896
aF-55.33868190552571
aF-55.677203583545435
aF-56.18865055963524
aF-56.81642363229478
aF-57.5095336633614
aF-58.229370092385075
aF-58.95001050700366
aF-59.65556047438036
aF-59.65556047438036
aF-59.65556047438036
aF-55.219705723878896
aF-55.33868190552571
aF-55.677203583545435
aF-56.18865055963524
aF-56.81642363229478
aF-57.5095336633614
aF-58.229370092385075
aF-58.95001050700366
aF-59.65556047438036
aF-59.65556047438036
aF-59.65556047438036
aF-55.219705723878896
aF-55.33868190552571
aF-55.677203583545435
aF-56.18865055963524
aF-56.81642363229478
aF-57.5095336633614
aF-58.229370092385075
aF-58.95001050700366
aF-59.65556047438036
aF-59.65556047438036
aF-59.65556047438036
aF-53.636274627664086
aF-53.80659317248818
aF-54.2807814835092
aF-54.97149717406017
aF-55.78442137108958
aF-56.64612314255933
aF-57.5095336633614
aF-58.34832862254786
aF-59.149628638922486
aF-59.65556047438036
aF-59.65556047438036
aF-53.636274627664086
aF-53.80659317248818
aF-54.2807814835092
aF-54.97149717406017
aF-55.78442137108958
aF-56.64612314255933
aF-57.5095336633614
aF-58.34832862254786
aF-59.149628638922486
aF-59.65556047438036
aF-59.65556047438036
aF-53.636274627664086
aF-53.80659317248818
aF-54.2807814835092
aF-54.97149717406017
aF-55.78442137108958
aF-56.64612314255933
aF-57.5095336633614
aF-58.34832862254786
aF-59.149628638922486
aF-59.65556047438036
aF-59.65556047438036
aF-51.698233687481085
aF-51.961504212840445
aF-52.667264791563895
aF-53.636274627664086
aF-54.70825112605102
aF-55.78442137108958
aF-56.81642363229478
aF-57.78530989731105
aF-58.68679734941665
aF-59.52331913888259
aF-59.65556047438036
aF-51.698233687481085
aF-51.961504212840445
aF-52.667264791563895
aF-53.636274627664086
aF-54.70825112605102
aF-55.78442137108958
aF-56.81642363229478
aF-57.78530989731105
aF-58.68679734941665
aF-59.52331913888259
aF-59.65556047438036
aF-51.698233687481085
aF-51.961504212840445
aF-52.667264791563895
aF-53.636274627664086
aF-54.70825112605102
aF-55.78442137108958
aF-56.81642363229478
aF-57.78530989731105
aF-58.68679734941665
aF-59.52331913888259
aF-59.65556047438036
aF-49.19958256275004
aF-49.65712536219131
aF-50.79651754892113
aF-52.209723596191076
aF-53.636274627664086
aF-54.97149717406017
aF-56.18865055963524
aF-57.29058105329027
aF-58.28926209374507
aF-59.198138020230104
aF-59.65556047438036
aF-49.19958256275004
aF-49.65712536219131
aF-50.79651754892113
aF-52.209723596191076
aF-53.636274627664086
aF-54.97149717406017
aF-56.18865055963524
aF-57.29058105329027
aF-58.28926209374507
aF-59.198138020230104
aF-59.65556047438036
aF-49.19958256275004
aF-49.65712536219131
aF-50.79651754892113
aF-52.209723596191076
aF-53.636274627664086
aF-54.97149717406017
aF-56.18865055963524
aF-57.29058105329027
aF-58.28926209374507
aF-59.198138020230104
aF-59.65556047438036
aF-45.67784567481536
aF-46.646925738106724
aF-48.6880814180561
aF-50.79651754892113
aF-52.667264791563895
aF-54.2807814835092
aF-55.677203583545435
aF-56.899144879379975
aF-57.981196846806625
aF-58.95001050700366
aF-59.65556047438036
aF-45.67784567481536
aF-46.646925738106724
aF-48.6880814180561
aF-50.79651754892113
aF-52.667264791563895
aF-54.2807814835092
aF-55.677203583545435
aF-56.899144879379975
aF-57.981196846806625
aF-58.95001050700366
aF-59.65556047438036
aF-45.67784567481536
aF-46.646925738106724
aF-48.6880814180561
aF-50.79651754892113
aF-52.667264791563895
aF-54.2807814835092
aF-55.677203583545435
aF-56.899144879379975
aF-57.981196846806625
aF-58.95001050700366
aF-59.65556047438036
aF-39.6572858953923
aF-42.667577825231135
aF-46.646925738106724
aF-49.65712536219131
aF-51.961504212840445
aF-53.80659317248818
aF-55.33868190552571
aF-56.64612314255933
aF-57.78530989731105
aF-58.79399748714029
aF-59.65556047438036
aF-39.6572858953923
aF-42.667577825231135
aF-46.646925738106724
aF-49.65712536219131
aF-51.961504212840445
aF-53.80659317248818
aF-55.33868190552571
aF-56.64612314255933
aF-57.78530989731105
aF-58.79399748714029
aF-59.65556047438036
aF-39.6572858953923
aF-42.667577825231135
aF-46.646925738106724
aF-49.65712536219131
aF-51.961504212840445
aF-53.80659317248818
aF-55.33868190552571
aF-56.64612314255933
aF-57.78530989731105
aF-58.79399748714029
aF-59.65556047438036
aF-53.636274627664086
aF-39.6572858953923
aF-45.67784567481536
aF-49.19958256275004
aF-51.698233687481085
aF-53.636274627664086
aF-55.219705723878896
aF-56.55841640172221
aF-57.71797326205701
aF-58.740732823460114
aF-59.65556047438036
aF-53.636274627664086
aF-39.6572858953923
aF-45.67784567481536
aF-49.19958256275004
aF-51.698233687481085
aF-53.636274627664086
aF-55.219705723878896
aF-56.55841640172221
aF-57.71797326205701
aF-58.740732823460114
aF-59.65556047438036
aF-53.636274627664086
aF-39.6572858953923
aF-45.67784567481536
aF-49.19958256275004
aF-51.698233687481085
aF-53.636274627664086
aF-55.219705723878896
aF-56.55841640172221
aF-57.71797326205701
aF-58.740732823460114
aF-59.65556047438036
aF-39.6572858953923
aF-42.667577825231135
aF-46.646925738106724
aF-49.65712536219131
aF-51.961504212840445
aF-53.80659317248818
aF-55.33868190552571
aF-56.64612314255933
aF-57.78530989731105
aF-58.79399748714029
aF-59.65556047438036
aF-39.6572858953923
aF-42.667577825231135
aF-46.646925738106724
aF-49.65712536219131
aF-51.961504212840445
aF-53.80659317248818
aF-55.33868190552571
aF-56.64612314255933
aF-57.78530989731105
aF-58.79399748714029
aF-59.65556047438036
aF-39.6572858953923
aF-42.667577825231135
aF-46.646925738106724
aF-49.65712536219131
aF-51.961504212840445
aF-53.80659317248818
aF-55.33868190552571
aF-56.64612314255933
aF-57.78530989731105
aF-58.79399748714029
aF-59.65556047438036
aF-45.67784567481536
aF-46.646925738106724
aF-48.6880814180561
aF-50.79651754892113
aF-52.667264791563895
aF-54.2807814835092
aF-55.677203583545435
aF-56.899144879379975
aF-57.981196846806625
aF-58.95001050700366
aF-59.65556047438036
aF-45.67784567481536
aF-46.646925738106724
aF-48.6880814180561
aF-50.79651754892113
aF-52.667264791563895
aF-54.2807814835092
aF-55.677203583545435
aF-56.899144879379975
aF-57.981196846806625
aF-58.95001050700366
aF-59.65556047438036
aF-45.67784567481536
aF-46.646925738106724
aF-48.6880814180561
aF-50.79651754892113
aF-52.667264791563895
aF-54.2807814835092
aF-55.677203583545435
aF-56.899144879379975
aF-57.981196846806625
aF-58.95001050700366
aF-59.65556047438036
aF-49.19958256275004
aF-49.65712536219131
aF-50.79651754892113
aF-52.209723596191076
aF-53.636274627664086
aF-54.97149717406017
aF-56.18865055963524
aF-57.29058105329027
aF-58.28926209374507
aF-59.198138020230104
aF-59.65556047438036
aF-49.19958256275004
aF-49.65712536219131
aF-50.79651754892113
aF-52.209723596191076
aF-53.636274627664086
aF-54.97149717406017
aF-56.18865055963524
aF-57.29058105329027
aF-58.28926209374507
aF-59.198138020230104
aF-59.65556047438036
aF-49.19958256275004
aF-49.65712536219131
aF-50.79651754892113
aF-52.209723596191076
aF-53.636274627664086
aF-54.97149717406017
aF-56.18865055963524
aF-57.29058105329027
aF-58.28926209374507
aF-59.198138020230104
aF-59.65556047438036
aF-51.698233687481085
aF-51.961504212840445
aF-52.667264791563895
aF-53.636274627664086
aF-54.70825112605102
aF-55.78442137108958
aF-56.81642363229478
aF-57.78530989731105
aF-58.68679734941665
aF-59.52331913888259
aF-59.65556047438036
aF-51.698233687481085
aF-51.961504212840445
aF-52.667264791563895
aF-53.636274627664086
aF-54.70825112605102
aF-55.78442137108958
aF-56.81642363229478
aF-57.78530989731105
aF-58.68679734941665
aF-59.52331913888259
aF-59.65556047438036
aF-51.698233687481085
aF-51.961504212840445
aF-52.667264791563895
aF-53.636274627664086
aF-54.70825112605102
aF-55.78442137108958
aF-56.81642363229478
aF-57.78530989731105
aF-58.68679734941665
aF-59.52331913888259
aF-59.65556047438036
aF-53.636274627664086
aF-53.80659317248818
aF-54.2807814835092
aF-54.97149717406017
aF-55.78442137108958
aF-56.64612314255933
aF-57.5095336633614
aF-58.34832862254786
aF-59.149628638922486
aF-59.65556047438036
aF-59.65556047438036
aF-53.636274627664086
aF-53.80659317248818
aF-54.2807814835092
aF-54.97149717406017
aF-55.78442137108958
aF-56.64612314255933
aF-57.5095336633614
aF-58.34832862254786
aF-59.149628638922486
aF-59.65556047438036
aF-59.65556047438036
aF-53.636274627664086
aF-53.80659317248818
aF-54.2807814835092
aF-54.97149717406017
aF-55.78442137108958
aF-56.64612314255933
aF-57.5095336633614
aF-58.34832862254786
aF-59.149628638922486
aF-59.65556047438036
aF-59.65556047438036
a.(lp0
I0
aI0
aI0
aI0
aI0
aI0
aI0
aI0
aI0
aI0
aI0
aI0
aI0
aI0
aI0
aI0
aI0
aI0
aI0
aI0
aI0
aI0
aI0
aI0
aI0
aI0
aI0
aI0
aI0
aI0
aI0
aI0
aI0
aI0
aI0
aI0
aI0
aI0
aI0
aI0
aI0
aI0
aI0
aI0
aI0
aI0
aI0
aI0
aI0
aI0
aI0
aI0
aI0
aI0
aI0
aI0
aI0
aI0
aI0
aI0
aI0
aI0
aI0
aI0
aI0
aI0
aI0
aI0
aI0
aI0
aI0
aI0
aI0
aI0
aI0
aI0
aI0
aI0
aI0
aI0
aI0
aI0
aI0
aI0
aI0
aI0
aI0
aI0
aI0
aI0
aI0
aI0
aI0
aI0
aI0
aI0
aI0
aI0
aI0
aI0
aI0
aI0
aI0
aI0
aI0
aI0
aI0
aI0
aI0
aI0
aI0
aI0
aI0
aI0
aI0
aI0
aI0
aI0
aI0
aI0
aI0
aI0
aI0
aI0
aI0
aI0
aI0
aI0
aI0
aI0
aI0
aI0
aI0
aI0
aI0
aI0
aI0
aI0
aI0
aI0
aI0
aI0
aI0
aI0
aI0
aI0
aI0
aI0
aI0
aI0
aI0
aI0
aI0
aI0
aI0
aI0
aI0
aI0
aI0
aI0
aI0
aI0
aI0
aI0
aI0
aI0
aI0
aI0
aI0
aI0
aI0
aI0
aI0
aI0
aI0
aI0
aI0
aI0
aI0
aI0
aI0
aI0
aI0
aI0
aI0
aI0
aI0
aI0
aI0
aI0
aI0
aI0
aI0
aI0
aI0
aI0
aI0
aI0
aI0
aI0
aI0
aI0
aI0
aI0
aI0
aI0
aI0
aI0
aI0
aI0
aI0
aI0
aI0
aI0
aI0
aI0
aI0
aI0
aI0
aI0
aI0
aI0
aI0
aI0
aI0
aI0
aI0
aI0
aI0
aI0
aI0
aI0
aI0
aI0
aI0
aI0
aI0
aI0
aI0
aI0
aI0
aI0
aI0
aI0
aI0
aI0
aI0
aI0
aI0
aI0
aI0
aI0
aI0
aI0
aI0
aI0
aI0
aI0
aI0
aI0
aI0
aI0
aI0
aI0
aI0
aI0
aI0
aI0
aI0
aI0
aI0
aI0
aI0
aI0
aI0
aI0
aI0
aI0
aI0
aI0
aI0
aI0
aI0
aI0
aI0
aI0
aI0
aI0
aI0
aI0
aI0
aI0
aI0
aI0
aI0
aI0
aI0
aI0
aI0
aI0
aI0
aI0
aI0
aI0
aI0
aI0
aI0
aI0
aI0
aI0
aI0
aI0
aI0
aI0
aI0
aI0
aI0
aI0
aI0
aI0
aI0
aI0
aI0
aI0
aI0
aI0
aI0
aI0
aI0
aI0
aI0
aI0
aI0
aI0
aI0
aI0
aI0
aI0
aI0
aI0
aI0
aI0
aI0
aI0
aI0
aI0
aI0
aI0
aI0
aI0
aI0
aI0
aI0
aI0
aI0
aI0
aI0
aI0
aI0
aI0
aI0
aI0
aI0
aI0
aI0
aI0
aI0
aI0
aI0
aI0
aI0
aI0
aI0
aI0
aI0
aI0
aI0
aI0
aI0
aI0
aI0
aI0
aI0
aI0
aI0
aI0
aI0
aI0
aI0
aI0
aI0
aI0
aI0
aI0
aI0
aI0
aI0
aI0
aI0
aI0
aI0
aI0
aI0
aI0
aI0
aI0
aI0
aI0
aI0
aI0
aI0
aI0
aI0
aI0
aI0
aI0
aI0
aI0
aI0
aI0
aI0
aI0
aI0
aI0
aI0
aI0
aI0
aI0
aI0
aI0
aI0
aI0
aI0
aI0
aI0
aI0
aI0
aI0
aI0
aI0
aI0
aI0
aI0
aI0
aI0
aI0
aI0
aI0
aI0
aI0
aI0
aI0
aI0
aI0
aI0
aI0
aI0
aI0
aI0
aI0
aI0
aI0
aI0
aI0
aI0
aI0
aI0
aI0
aI0
aI0
aI0
aI0
aI0
aI0
aI0
aI0
aI0
aI0
aI0
aI0
aI0
aI0
aI0
aI0
aI0
aI0
aI0
aI0
aI0
aI0
aI0
aI0
aI0
aI0
aI0
aI0
aI0
aI0
aI0
aI0
aI0
aI0
aI0
aI0
aI0
aI0
aI0
aI0
aI0
aI0
aI0
aI0
aI0
aI0
aI0
aI0
aI0
aI0
aI0
aI0
aI0
aI0
aI0
aI0
aI0
aI0
aI0
aI0
aI0
aI0
aI0
aI0
aI0
aI0
aI0
aI0
aI0
aI0
aI0
aI0
aI0
aI0
aI0
aI0
aI0
aI0
aI0
aI0
aI0
aI0
aI0
aI0
aI0
aI0
aI0
aI0
aI0
aI0
aI0
aI0
aI0
aI0
aI0
aI0
aI0
aI0
aI0
aI0
aI0
aI0
aI0
aI0
aI0
aI0
aI0
aI0
aI0
aI0
aI0
aI0
aI0
aI0
aI0
aI0
aI0
aI0
aI0
aI0
aI0
aI0
aI0
aI0
aI0
aI0
aI0
aI0
aI0
aI0
aI0
aI0
aI0
aI0
aI0
aI0
aI0
aI0
aI0
aI0
aI0
aI0
aI0
aI0
aI0
aI0
aI0
aI0
aI0
aI0
aI0
aI0
aI0
aI0
aI0
aI0
aI0
aI0
aI0
aI0
aI0
aI0
aI0
aI0
aI0
aI0
aI0
aI0
aI0
aI0
aI0
aI0
aI0
aI0
aI0
aI0
aI0
aI0
aI0
aI0
aI0
aI0
aI0
aI0
aI0
aI0
aI0
aI0
aI0
aI0
aI0
aI0
aI0
aI0
aI0
aI0
aI0
aI0
aI0
aI0
aI0
aI0
aI0
aI0
aI0
aI0
aI0
aI0
aI0
aI0
aI0
aI0
aI0
aI0
aI0
aI0
aI0
aI0
aI0
aI0
aI0
aI0
aI0
aI0
aI0
aI0
aI0
aI0
aI0
aI0
aI0
aI0
aI0
aI0
aI0
aI0
aI0
aI0
aI0
aI0
aI0
aI0
aI0
aI0
aI0
aI0
aI0
aI0
aI0
aI0
aI0
aI0
aI0
aI0
aI0
aI0
aI0
aI0
aI0
aI0
aI0
aI0
aI0
aI0
aI0
aI0
aI0
aI0
aI0
aI0
aI0
aI0
aI0
aI0
aI0
aI0
aI0
aI0
aI0
aI0
aI0
aI0
aI0
aI0
aI0
aI0
aI0
aI0
aI0
aI0
aI0
aI0
aI0
aI0
aI0
aI0
aI0
aI0
aI0
aI0
aI0
aI0
aI0
aI0
aI0
aI0
aI0
aI0
aI0
aI0
aI0
aI0
aI0
aI0
aI0
aI0
aI0
aI0
aI0
aI0
aI0
aI0
aI0
aI0
aI0
aI0
aI0
aI0
aI0
aI0
aI0
aI0
aI0
aI0
aI0
aI0
aI0
aI0
aI0
aI0
aI0
aI0
aI0
aI0
aI0
aI0
aI0
aI0
aI0
aI0
aI0
aI0
aI0
aI0
aI0
aI0
aI0
aI0
aI0
aI0
aI0
aI0
aI0
aI0
aI0
aI0
aI0
aI0
aI0
aI0
aI0
aI0
aI1
aI1
aI1
aI1
aI1
aI1
aI1
aI1
aI1
aI1
aI1
aI1
aI1
aI1
aI1
aI1
aI1
aI1
aI1
aI1
aI1
aI1
aI1
aI1
aI1
aI1
aI1
aI1
aI1
aI1
aI1
aI1
aI1
aI1
aI1
aI1
aI1
aI1
aI1
aI1
aI1
aI1
aI1
aI1
aI1
aI1
aI1
aI1
aI1
aI1
aI1
aI1
aI1
aI1
aI1
aI1
aI1
aI1
aI1
aI1
aI1
aI1
aI1
aI1
aI1
aI1
aI1
aI1
aI1
aI1
aI1
aI1
aI1
aI1
aI1
aI1
aI1
aI1
aI1
aI1
aI1
aI1
aI1
aI1
aI1
aI1
aI1
aI1
aI1
aI1
aI1
aI1
aI1
aI1
aI1
aI1
aI1
aI1
aI1
aI1
aI1
aI1
aI1
aI1
aI1
aI1
aI1
aI1
aI1
aI1
aI1
aI1
aI1
aI1
aI1
aI1
aI1
aI1
aI1
aI1
aI1
aI1
aI1
aI1
aI1
aI1
aI1
aI1
aI1
aI1
aI1
aI1
aI1
aI1
aI1
aI1
aI1
aI1
aI1
aI1
aI1
aI1
aI1
aI1
aI1
aI1
aI1
aI1
aI1
aI1
aI1
aI1
aI1
aI1
aI1
aI1
aI1
aI1
aI1
aI1
aI1
aI1
aI1
aI1
aI1
aI1
aI1
aI1
aI1
aI1
aI1
aI1
aI1
aI1
aI1
aI1
aI1
aI1
aI1
aI1
aI1
aI1
aI1
aI1
aI1
aI1
aI1
aI1
aI1
aI1
aI1
aI1
aI1
aI1
aI1
aI1
aI1
aI1
aI1
aI1
aI1
aI1
aI1
aI1
aI1
aI1
aI1
aI1
aI1
aI1
aI1
aI1
aI1
aI1
aI1
aI1
aI1
aI1
aI1
aI1
aI1
aI1
aI1
aI1
aI1
aI1
aI1
aI1
aI1
aI1
aI1
aI1
aI1
aI1
aI1
aI1
aI1
aI1
aI1
aI1
aI1
aI1
aI1
aI1
aI1
aI1
aI1
aI1
aI1
aI1
aI1
aI1
aI1
aI1
aI1
aI1
aI1
aI1
aI1
aI1
aI1
aI1
aI1
aI1
aI1
aI1
aI1
aI1
aI1
aI1
aI1
aI1
aI1
aI1
aI1
aI1
aI1
aI1
aI1
aI1
aI1
aI1
aI1
aI1
aI1
aI1
aI1
aI1
aI1
aI1
aI1
aI1
aI1
aI1
aI1
aI1
aI1
aI1
aI1
aI1
aI1
aI1
aI1
aI1
aI1
aI1
aI1
aI1
aI1
aI1
aI1
aI1
aI1
aI1
aI1
aI1
aI1
aI1
aI1
aI1
aI1
aI1
aI1
aI1
aI1
aI1
aI1
aI1
aI1
aI1
aI1
aI1
aI1
aI1
aI1
aI1
aI1
aI1
aI1
aI1
aI1
aI1
aI1
aI1
aI1
aI1
aI1
aI1
aI1
aI1
aI1
aI1
aI1
aI1
aI1
aI1
aI1
aI1
aI1
aI1
aI1
aI1
aI1
aI1
aI1
aI1
aI1
aI1
aI1
aI1
aI1
aI1
aI1
aI1
aI1
aI1
aI1
aI1
aI1
aI1
aI1
aI1
aI1
aI1
aI1
aI1
aI1
aI1
aI1
aI1
aI1
aI1
aI1
aI1
aI1
aI1
aI1
aI1
aI1
aI1
aI1
aI1
aI1
aI1
aI1
aI1
aI1
aI1
aI1
aI1
aI1
aI1
aI1
aI1
aI1
aI1
aI1
aI1
aI1
aI1
aI1
aI1
aI1
aI1
aI1
aI1
aI1
aI1
aI1
aI1
aI1
aI1
aI1
aI1
aI1
aI1
aI1
aI1
aI1
aI1
aI1
aI1
aI1
aI1
aI1
aI1
aI1
aI1
aI1
aI1
aI1
aI1
aI1
aI1
aI1
aI1
aI1
aI1
aI1
aI1
aI1
aI1
aI1
aI1
aI1
aI1
aI1
aI1
aI1
aI1
aI1
aI1
aI1
aI1
aI1
aI1
aI1
aI1
aI1
aI1
aI1
aI1
aI1
aI1
aI1
aI1
aI1
aI1
aI1
aI1
aI1
aI1
aI1
aI1
aI1
aI1
aI1
aI1
aI1
aI1
aI1
aI1
aI1
aI1
aI1
aI1
aI1
aI1
aI1
aI1
aI1
aI1
aI1
aI1
aI1
aI1
aI1
aI1
aI1
aI1
aI1
aI1
aI1
aI1
aI1
aI1
aI1
aI1
aI1
aI1
aI1
aI1
aI1
aI1
aI1
aI1
aI1
aI1
aI1
aI1
aI1
aI1
aI1
aI1
aI1
aI1
aI1
aI1
aI1
aI1
aI1
aI1
aI1
aI1
aI1
aI1
aI1
aI1
aI1
aI1
aI1
aI1
aI1
aI1
aI1
aI1
aI1
aI1
aI1
aI1
aI1
aI1
aI1
aI1
aI1
aI1
aI1
aI1
aI1
aI1
aI1
aI1
aI1
aI1
aI1
aI1
aI1
aI1
aI1
aI1
aI1
aI1
aI1
aI1
aI1
aI1
aI1
aI1
aI1
aI1
aI1
aI1
aI1
aI1
aI1
aI1
aI1
aI1
aI1
aI1
aI1
aI1
aI1
aI1
aI1
aI1
aI1
aI1
aI1
aI1
aI1
aI1
aI1
aI1
aI1
aI1
aI1
aI1
aI1
aI1
aI1
aI1
aI1
aI1
aI1
aI1
aI1
aI1
aI1
aI1
aI1
aI1
aI1
aI1
aI1
aI1
aI1
aI1
aI1
aI1
aI1
aI1
aI1
aI1
aI1
aI1
aI1
aI1
aI1
aI1
aI1
aI1
aI1
aI1
aI1
aI1
aI1
aI1
aI1
aI1
aI1
aI1
aI1
aI1
aI1
aI1
aI1
aI1
aI1
aI1
aI1
aI1
aI1
aI1
aI1
aI1
aI1
aI1
aI1
aI1
aI1
aI1
aI1
aI1
aI1
aI1
aI1
aI1
aI1
aI1
aI1
aI1
aI1
aI1
aI1
aI1
aI1
aI1
aI1
aI1
aI1
aI1
aI1
aI1
aI1
aI1
aI1
aI1
aI1
aI1
aI1
aI1
aI1
aI1
aI1
aI1
aI1
aI1
aI1
aI1
aI1
aI1
aI1
aI1
aI1
aI1
aI1
aI1
aI1
aI1
aI1
aI1
aI1
aI1
aI1
aI1
aI1
aI1
aI1
aI1
aI1
aI1
aI1
aI1
aI1
aI1
aI1
aI1
aI1
aI1
aI1
aI1
aI1
aI1
aI1
aI1
aI1
aI1
aI1
aI1
aI1
aI1
aI1
aI1
aI1
aI1
aI1
aI1
aI1
aI1
aI1
aI1
aI1
aI1
aI1
aI1
aI1
aI1
aI1
aI1
aI1
aI1
aI1
aI1
aI1
aI1
aI1
aI1
aI1
aI1
aI1
aI1
aI1
aI1
aI1
aI1
aI1
aI1
aI1
aI1
aI1
aI1
aI1
aI1
aI1
aI1
aI1
aI1
aI1
aI1
aI1
aI1
aI1
aI1
aI1
aI1
aI1
aI1
aI1
aI1
aI1
aI1
aI1
aI1
aI1
aI1
aI1
aI1
aI1
aI1
aI1
aI1
aI1
aI1
aI1
aI1
aI1
aI1
aI1
aI1
aI1
aI1
aI1
aI1
aI1
aI1
aI1
aI1
aI1
aI1
aI1
aI1
aI1
aI1
aI1
aI1
aI1
aI1
aI1
aI1
aI1
aI1
aI1
aI1
aI1
aI1
aI1
aI1
aI1
aI1
aI1
aI1
aI1
aI1
aI1
aI1
aI1
aI1
aI1
aI1
aI1
aI1
aI1
aI1
aI1
aI1
aI1
aI1
aI1
aI1
aI1
aI1
aI1
aI1
aI1
aI1
aI1
aI1
aI1
aI1
aI1
aI1
aI1
aI1
aI1
aI1
aI1
aI1
aI1
aI1
aI1
aI1
aI1
aI1
aI1
aI1
aI1
aI1
aI1
aI1
aI1
aI1
aI1
aI1
aI1
aI1
aI1
aI1
aI1
aI1
aI1
aI1
aI1
aI1
aI1
aI1
aI1
aI1
aI1
aI1
aI1
aI1
aI1
aI1
aI1
aI1
aI1
aI1
aI1
aI1
aI1
aI1
aI1
aI1
aI1
aI1
aI1
aI1
aI1
aI1
aI1
aI1
aI1
aI1
aI1
aI1
aI1
aI1
aI1
aI1
aI1
aI1
aI1
aI1
aI1
aI1
aI1
aI1
aI1
aI1
aI1
aI1
aI1
aI1
aI1
aI1
aI1
aI1
aI1
aI1
aI1
aI1
aI1
aI1
aI1
aI1
aI1
aI1
aI1
aI1
aI1
aI1
aI1
aI1
aI1
aI1
aI1
aI1
aI1
aI1
aI1
aI1
aI1
aI1
aI1
aI1
aI1
aI1
aI1
aI1
aI1
aI1
aI1
aI1
aI1
aI1
aI1
aI1
aI1
aI1
aI1
aI1
aI1
aI1
aI1
aI1
aI1
aI1
aI1
aI1
aI1
aI1
aI1
aI1
aI1
aI1
aI1
aI1
aI1
aI1
aI1
aI1
aI1
aI1
aI1
aI1
aI1
aI1
aI1
aI1
aI1
aI1
aI1
aI1
aI1
aI1
aI1
aI1
aI1
aI1
aI1
aI1
aI1
aI1
aI1
aI1
aI1
aI1
aI1
aI1
aI1
aI1
aI1
aI1
aI1
aI1
aI1
aI1
aI1
aI1
aI1
aI1
aI1
aI1
aI1
aI1
aI1
aI1
aI1
aI1
aI1
aI1
aI1
aI1
aI1
aI1
aI1
aI1
aI1
aI1
aI1
aI1
aI1
aI1
aI1
aI1
aI1
aI1
aI1
aI1
aI1
aI1
aI1
aI1
aI1
aI1
aI1
aI1
aI1
aI1
aI1
aI1
aI1
aI1
aI1
aI1
aI1
aI1
aI1
aI1
aI1
aI1
aI1
aI1
aI1
aI1
aI1
aI1
aI1
aI1
aI1
aI1
aI1
aI1
aI1
aI1
aI1
aI1
aI1
aI1
aI1
aI1
aI1
aI1
aI1
aI1
aI1
aI1
aI1
aI1
aI1
aI1
aI1
aI1
aI1
aI1
aI1
aI1
aI1
aI1
aI1
aI1
aI1
aI1
aI1
aI1
aI1
aI1
aI1
aI1
aI1
aI1
aI1
aI1
aI1
aI1
aI1
aI1
aI1
aI1
aI1
aI1
aI1
aI1
aI1
aI1
aI1
aI1
aI1
aI1
aI1
aI1
aI1
aI1
aI1
aI1
aI1
aI1
aI1
aI1
aI1
aI1
aI1
aI1
aI1
aI1
aI1
aI1
aI1
aI1
aI1
aI1
aI1
aI1
aI1
aI1
aI1
aI1
aI1
aI1
aI1
aI1
aI1
aI1
aI1
aI1
aI1
aI1
aI1
aI1
aI1
aI1
aI1
aI1
aI1
aI1
aI1
aI1
aI1
aI1
aI1
aI1
aI1
aI1
aI1
aI1
aI1
aI1
aI1
aI1
aI1
aI1
aI1
aI1
aI1
aI1
aI1
aI1
aI1
aI1
aI1
aI1
aI1
aI1
aI1
aI1
aI1
aI1
aI1
aI1
aI1
aI1
aI1
aI1
aI1
aI1
aI1
aI1
aI1
aI1
aI1
aI1
aI1
aI1
aI1
aI1
aI1
aI1
aI1
aI1
aI1
aI1
aI1
aI1
aI1
aI1
aI1
aI1
aI1
aI1
aI1
aI1
aI1
aI1
aI1
aI1
aI1
aI1
aI1
aI1
aI1
aI1
aI1
aI1
aI1
aI1
aI1
aI1
aI1
aI1
aI1
aI1
aI1
aI1
aI1
aI1
aI1
aI1
aI1
aI1
aI1
aI1
aI1
aI1
aI1
aI1
aI1
aI1
aI1
aI1
aI1
aI1
aI1
aI1
aI1
aI1
aI1
aI1
aI1
aI1
aI1
aI1
aI1
aI1
aI1
aI1
aI1
aI1
aI1
aI1
aI1
aI1
aI1
aI1
aI1
aI1
aI1
aI1
aI1
aI1
aI1
aI1
aI1
aI1
aI1
aI1
aI1
aI1
aI1
aI1
aI1
aI1
aI1
aI1
aI1
aI1
aI1
aI1
aI1
aI1
aI1
aI1
aI1
aI1
aI1
aI1
aI1
aI1
aI1
aI1
aI1
aI1
aI1
aI1
aI1
aI1
aI1
aI1
aI1
aI1
aI1
aI1
aI1
aI1
aI1
aI1
aI1
aI1
aI1
aI1
aI1
aI1
aI1
aI1
aI1
aI1
aI1
aI1
aI1
aI1
aI1
aI1
aI1
aI1
aI1
aI1
aI1
aI1
aI1
aI1
aI1
aI1
aI1
aI1
aI1
aI1
aI1
aI1
aI1
aI1
aI1
aI1
aI1
aI1
aI1
aI1
aI1
aI1
aI1
aI1
aI1
aI1
aI1
aI1
aI1
aI1
aI1
aI1
aI1
aI1
aI1
aI1
aI1
aI1
aI1
aI1
aI1
aI1
aI1
aI1
aI1
aI1
aI1
aI1
aI1
aI1
aI1
aI1
aI1
aI1
aI1
aI1
aI1
aI1
aI1
aI1
aI1
aI1
aI1
aI1
aI1
aI1
aI1
aI1
aI1
aI1
aI1
aI1
aI1
aI1
aI1
aI1
aI1
aI1
aI1
aI1
aI1
aI1
aI1
aI1
aI1
aI1
aI1
aI1
aI1
aI1
aI1
aI1
aI1
aI1
aI1
aI1
aI1
aI1
aI1
aI1
aI1
aI1
aI1
aI1
aI1
aI1
aI1
aI1
aI1
aI1
aI1
aI1
aI1
aI1
aI1
aI1
aI1
aI1
aI1
aI1
aI1
aI1
aI1
aI1
aI1
aI1
aI1
aI1
aI1
aI1
aI1
aI1
aI1
aI1
aI1
aI1
aI1
aI1
aI1
aI1
aI1
aI1
aI1
aI1
aI1
aI1
aI1
aI1
aI1
aI1
aI1
aI1
aI1
aI1
aI1
aI1
aI1
aI1
aI1
aI1
aI1
aI1
aI1
aI1
aI1
aI1
aI1
aI1
aI1
aI1
aI1
aI1
aI1
aI1
aI1
aI1
aI1
aI1
aI1
aI1
aI1
aI1
aI1
aI1
aI1
aI1
aI1
aI1
aI1
aI1
aI1
aI1
aI1
aI1
aI1
aI1
aI1
aI1
aI1
aI1
aI1
aI1
aI1
aI1
aI1
aI1
aI1
aI1
aI1
aI1
aI1
aI1
aI1
aI1
aI1
aI1
aI1
aI1
aI1
aI1
aI1
aI1
aI1
aI1
aI1
aI1
aI1
aI1
aI1
aI1
aI1
aI1
aI1
aI1
aI1
aI1
aI1
aI1
aI1
aI1
aI1
aI1
aI1
aI1
aI1
aI1
aI1
aI1
aI1
aI1
aI1
aI1
aI1
aI1
aI1
aI1
aI1
aI1
aI1
aI1
aI1
aI1
aI1
aI1
aI1
aI1
aI1
aI1
aI1
aI1
aI1
aI1
aI1
aI1
aI1
aI1
aI1
aI1
aI1
aI1
aI1
aI1
aI1
aI1
aI1
aI1
aI1
aI1
aI1
aI1
aI1
aI1
aI1
aI1
aI1
aI1
aI1
aI1
aI1
aI1
aI1
aI1
aI1
aI1
aI1
aI1
aI1
aI1
aI1
aI1
aI1
aI1
aI1
aI1
aI1
aI1
aI1
aI1
aI1
aI1
aI1
aI1
aI1
aI1
aI1
aI1
aI1
aI1
aI1
aI1
aI1
aI1
aI1
aI1
aI1
aI1
aI1
aI1
aI1
aI1
aI1
aI1
aI1
aI1
aI1
aI1
aI1
aI1
aI1
aI1
aI1
aI1
aI1
aI1
aI1
aI1
aI1
aI1
aI1
aI1
aI1
aI1
aI1
aI1
aI1
aI1
aI1
aI1
aI1
aI1
aI1
aI1
aI1
aI1
aI1
aI1
aI1
aI1
aI1
aI1
aI1
aI1
aI1
aI1
aI1
aI1
aI1
aI1
aI1
aI1
aI1
aI1
aI1
aI1
aI1
aI1
aI1
aI1
aI1
aI1
aI1
aI1
aI1
aI1
aI1
aI1
aI1
aI1
aI1
aI1
aI1
aI1
aI1
aI1
aI1
aI1
aI1
aI1
aI1
aI1
aI1
aI1
aI1
aI1
aI1
aI1
aI1
aI1
aI1
aI1
aI1
aI1
aI1
aI1
aI1
aI1
aI1
aI1
aI1
aI1
aI1
aI1
aI1
aI1
aI1
aI1
aI1
aI1
aI1
aI1
aI1
aI1
aI1
aI1
aI1
aI1
aI1
aI1
aI1
aI1
aI1
aI1
aI1
aI1
aI1
aI1
aI1
aI1
aI1
aI1
aI1
aI1
aI1
aI1
aI1
aI1
aI1
aI1
aI1
aI1
aI1
aI1
aI1
aI1
aI1
aI1
aI1
aI2
aI2
aI2
aI2
aI2
aI2
aI2
aI2
aI2
aI2
aI2
aI2
aI2
aI2
aI2
aI2
aI2
aI2
aI2
aI2
aI2
aI2
aI2
aI2
aI2
aI2
aI2
aI2
aI2
aI2
aI2
aI2
aI2
aI2
aI2
aI2
aI2
aI2
aI2
aI2
aI2
aI2
aI2
aI2
aI2
aI2
aI2
aI2
aI2
aI2
aI2
aI2
aI2
aI2
aI2
aI2
aI2
aI2
aI2
aI2
aI2
aI2
aI2
aI2
aI2
aI2
aI2
aI2
aI2
aI2
aI2
aI2
aI2
aI2
aI2
aI2
aI2
aI2
aI2
aI2
aI2
aI2
aI2
aI2
aI2
aI2
aI2
aI2
aI2
aI2
aI2
aI2
aI2
aI2
aI2
aI2
aI2
aI2
aI2
aI2
aI2
aI2
aI2
aI2
aI2
aI2
aI2
aI2
aI2
aI2
aI2
aI2
aI2
aI2
aI2
aI2
aI2
aI2
aI2
aI2
aI2
aI2
aI2
aI2
aI2
aI2
aI2
aI2
aI2
aI2
aI2
aI2
aI2
aI2
aI2
aI2
aI2
aI2
aI2
aI2
aI2
aI2
aI2
aI2
aI2
aI2
aI2
aI2
aI2
aI2
aI2
aI2
aI2
aI2
aI2
aI2
aI2
aI2
aI2
aI2
aI2
aI2
aI2
aI2
aI2
aI2
aI2
aI2
aI2
aI2
aI2
aI2
aI2
aI2
aI2
aI2
aI2
aI2
aI2
aI2
aI2
aI2
aI2
aI2
aI2
aI2
aI2
aI2
aI2
aI2
aI2
aI2
aI2
aI2
aI2
aI2
aI2
aI2
aI2
aI2
aI2
aI2
aI2
aI2
aI2
aI2
aI2
aI2
aI2
aI2
aI2
aI2
aI2
aI2
aI2
aI2
aI2
aI2
aI2
aI2
aI2
aI2
aI2
aI2
aI2
aI2
aI2
aI2
aI2
aI2
aI2
aI2
aI2
aI2
aI2
aI2
aI2
aI2
aI2
aI2
aI2
aI2
aI2
aI2
aI2
aI2
aI2
aI2
aI2
aI2
aI2
aI2
aI2
aI2
aI2
aI2
aI2
aI2
aI2
aI2
aI2
aI2
aI2
aI2
aI2
aI2
aI2
aI2
aI2
aI2
aI2
aI2
aI2
aI2
aI2
aI2
aI2
aI2
aI2
aI2
aI2
aI2
aI2
aI2
aI2
aI2
aI2
aI2
aI2
aI2
aI2
aI2
aI2
aI2
aI2
aI2
aI2
aI2
aI2
aI2
aI2
aI2
aI2
aI2
aI2
aI2
aI2
aI2
aI2
aI2
aI2
aI2
aI2
aI2
aI2
aI2
aI2
aI2
aI2
aI2
aI2
aI2
aI2
aI2
aI2
aI2
aI2
aI2
aI2
aI2
aI2
aI2
aI2
aI2
aI2
aI2
aI2
aI2
aI2
aI2
aI2
aI2
aI2
aI2
aI2
aI2
aI2
aI2
aI2
aI2
aI2
aI2
aI2
aI2
aI2
aI2
aI2
aI2
aI2
aI2
aI2
aI2
aI2
aI2
aI2
aI2
aI2
aI2
aI2
aI2
aI2
aI2
aI2
aI2
aI2
aI2
aI2
aI2
aI2
aI2
aI2
aI2
aI2
aI2
aI2
aI2
aI2
aI2
aI2
aI2
aI2
aI2
aI2
aI2
aI2
aI2
aI2
aI2
aI2
aI2
aI2
aI2
aI2
aI2
aI2
aI2
aI2
aI2
aI2
aI2
aI2
aI2
aI2
aI2
aI2
aI2
aI2
aI2
aI2
aI2
aI2
aI2
aI2
aI2
aI2
aI2
aI2
aI2
aI2
aI2
aI2
aI2
aI2
aI2
aI2
aI2
aI2
aI2
aI2
aI2
aI2
aI2
aI2
aI2
aI2
aI2
aI2
aI2
aI2
aI2
aI2
aI2
aI2
aI2
aI2
aI2
aI2
aI2
aI2
aI2
aI2
aI2
aI2
aI2
aI2
aI2
aI2
aI2
aI2
aI2
aI2
aI2
aI2
aI2
aI2
aI2
aI2
aI2
aI2
aI2
aI2
aI2
aI2
aI2
aI2
aI2
aI2
aI2
aI2
aI2
aI2
aI2
aI2
aI2
aI2
aI2
aI2
aI2
aI2
aI2
aI2
aI2
aI2
aI2
aI2
aI2
aI2
aI2
aI2
aI2
aI2
aI2
aI2
aI2
aI2
aI2
aI2
aI2
aI2
aI2
aI2
aI2
aI2
aI2
aI2
aI2
aI2
aI2
aI3
aI3
aI3
aI3
aI3
aI3
aI3
aI3
aI3
aI3
aI3
aI3
aI3
aI3
aI3
aI3
aI3
aI3
aI3
aI3
aI3
aI3
aI3
aI3
aI3
aI3
aI3
aI3
aI3
aI3
aI3
aI3
aI3
aI3
aI3
aI3
aI3
aI3
aI3
aI3
aI3
aI3
aI3
aI3
aI3
aI3
aI3
aI3
aI3
aI3
aI3
aI3
aI3
aI3
aI3
aI3
aI3
aI3
aI3
aI3
aI3
aI3
aI3
aI3
aI3
aI3
aI3
aI3
aI3
aI3
aI3
aI3
aI3
aI3
aI3
aI3
aI3
aI3
aI3
aI3
aI3
aI3
aI3
aI3
aI3
aI3
aI3
aI3
aI3
aI3
aI3
aI3
aI3
aI3
aI3
aI3
aI3
aI3
aI3
aI3
aI3
aI3
aI3
aI3
aI3
aI3
aI3
aI3
aI3
aI3
aI3
aI3
aI3
aI3
aI3
aI3
aI3
aI3
aI3
aI3
aI3
aI3
aI3
aI3
aI3
aI3
aI3
aI3
aI3
aI3
aI3
aI3
aI3
aI3
aI3
aI3
aI3
aI3
aI3
aI3
aI3
aI3
aI3
aI3
aI3
aI3
aI3
aI3
aI3
aI3
aI3
aI3
aI3
aI3
aI3
aI3
aI3
aI3
aI3
aI3
aI3
aI3
aI3
aI3
aI3
aI3
aI3
aI3
aI3
aI3
aI3
aI3
aI3
aI3
aI3
aI3
aI3
aI3
aI3
aI3
aI3
aI3
aI3
aI3
aI3
aI3
aI3
aI3
aI3
aI3
aI3
aI3
aI3
aI3
aI3
aI3
aI3
aI3
aI3
aI3
aI3
aI3
aI3
aI3
aI3
aI3
aI3
aI3
aI3
aI3
aI3
aI3
aI3
aI3
aI3
aI3
aI3
aI3
aI3
aI3
aI3
aI3
aI3
aI3
aI3
aI3
aI3
aI3
aI3
aI3
aI3
aI3
aI3
aI3
aI3
aI3
aI3
aI3
aI3
aI3
aI3
aI3
aI3
aI3
aI3
aI3
aI3
aI3
aI3
aI3
aI3
aI3
aI3
aI3
aI3
aI3
aI3
aI3
aI3
aI3
aI3
aI3
aI3
aI3
aI3
aI3
aI3
aI3
aI3
aI3
aI3
aI3
aI3
aI3
aI3
aI3
aI3
aI3
aI3
aI3
aI3
aI3
aI3
aI3
aI3
aI3
aI3
aI3
aI3
aI3
aI3
aI3
aI3
aI3
aI3
aI3
aI3
aI3
aI3
aI3
aI3
aI3
aI3
aI3
aI3
aI3
aI3
aI3
aI3
aI3
aI3
aI3
aI3
aI3
aI3
aI3
aI3
aI3
aI3
aI3
aI3
aI3
aI3
aI3
aI3
aI3
aI3
aI3
aI3
aI3
aI3
aI3
aI3
aI3
aI3
aI3
aI3
aI3
aI3
aI3
aI3
aI3
aI3
aI3
aI3
aI3
aI3
aI3
aI3
aI3
aI3
aI3
aI3
aI3
aI3
aI3
aI3
aI3
aI3
aI3
aI3
aI3
aI3
aI3
aI3
aI3
aI3
aI3
aI3
aI3
aI3
aI3
aI3
aI3
aI3
aI3
aI3
aI3
aI3
aI3
aI3
aI3
aI3
aI3
aI3
aI3
aI3
aI3
aI3
aI3
aI3
aI3
aI3
aI3
aI3
aI3
aI3
aI3
aI3
aI3
aI3
aI3
aI3
aI3
aI3
aI3
aI3
aI3
aI3
aI3
aI3
aI3
aI3
aI3
aI3
aI3
aI3
aI3
aI3
aI3
aI3
aI3
aI3
aI3
aI3
aI3
aI3
aI3
aI3
aI3
aI3
aI3
aI3
aI3
aI3
aI3
aI3
aI3
aI3
aI3
aI3
aI3
aI3
aI3
aI3
aI3
aI3
aI3
aI3
aI3
aI3
aI3
aI3
aI3
aI3
aI3
aI3
aI3
aI3
aI3
aI3
aI3
aI3
aI3
aI3
aI3
aI3
aI3
aI3
aI3
aI3
aI3
aI3
aI3
aI3
aI3
aI3
aI3
aI3
aI3
aI3
aI3
aI3
aI3
aI3
aI3
aI3
aI3
aI3
aI3
aI3
aI3
aI3
aI3
aI3
aI3
aI3
aI3
aI3
aI3
aI3
aI3
aI3
aI3
aI3
aI3
aI3
aI3
aI3
aI3
aI3
aI3
aI3
aI3
aI3
aI3
aI3
aI3
aI3
aI3
aI3
aI3
aI3
aI3
aI3
aI3
aI3
aI3
a.